

Microchip MPLAB XC8 Assembler V2.20 build 20200408173844 
                                                                                               Wed Nov 04 21:21:20 2020

Microchip MPLAB XC8 C Compiler v2.20 (Free license) build 20200408173844 Og1 
     1                           	processor	18F4550
     2                           	fnconf	rparam,??,?,0
     3                           	pagewidth 120
     4                           	opt	flic
     5                           	psect	smallconst,global,reloc=2,class=SMALLCONST,delta=1,noexec
     6                           	psect	cinit,global,reloc=2,class=CODE,delta=1
     7                           	psect	bssBANK0,global,class=BANK0,space=1,delta=1,lowdata,noexec
     8                           	psect	bssBANK1,global,class=BANK1,space=1,delta=1,lowdata,noexec
     9                           	psect	cstackBANK0,global,class=BANK0,space=1,delta=1,lowdata,noexec
    10                           	psect	cstackCOMRAM,global,class=COMRAM,space=1,delta=1,lowdata,noexec
    11                           	psect	text0,global,reloc=2,class=CODE,delta=1
    12                           	psect	text1,global,reloc=2,class=CODE,delta=1
    13                           	psect	text2,global,reloc=2,class=CODE,delta=1
    14                           	psect	text3,global,reloc=2,class=CODE,delta=1
    15                           	psect	text4,global,reloc=2,class=CODE,delta=1
    16                           	psect	text5,global,reloc=2,class=CODE,delta=1
    17                           	psect	text6,global,reloc=2,class=CODE,delta=1
    18                           	psect	text7,global,reloc=2,class=CODE,delta=1,group=3
    19                           	psect	text8,global,reloc=2,class=CODE,delta=1,group=1
    20                           	psect	text9,global,reloc=2,class=CODE,delta=1,group=1
    21                           	psect	text10,global,reloc=2,class=CODE,delta=1,group=3
    22                           	psect	text11,global,reloc=2,class=CODE,delta=1,group=1
    23                           	psect	text12,global,reloc=2,class=CODE,delta=1,group=3
    24                           	psect	text13,global,reloc=2,class=CODE,delta=1,group=3
    25                           	psect	text14,global,reloc=2,class=CODE,delta=1,group=3
    26                           	psect	text15,global,reloc=2,class=CODE,delta=1,group=1
    27                           	psect	text16,global,reloc=2,class=CODE,delta=1,group=3
    28                           	psect	text17,global,reloc=2,class=CODE,delta=1,group=3
    29                           	psect	text18,global,reloc=2,class=CODE,delta=1,group=3
    30                           	psect	text19,global,reloc=2,class=CODE,delta=1,group=3
    31                           	psect	text20,global,reloc=2,class=CODE,delta=1,group=3
    32                           	psect	text21,global,reloc=2,class=CODE,delta=1,group=3
    33                           	psect	text22,global,reloc=2,class=CODE,delta=1,group=2
    34                           	psect	text23,global,reloc=2,class=CODE,delta=1,group=2
    35                           	psect	text24,global,reloc=2,class=CODE,delta=1,group=2
    36                           	psect	text25,global,reloc=2,class=CODE,delta=1,group=2
    37                           	psect	text26,global,reloc=2,class=CODE,delta=1,group=2
    38                           	psect	text27,global,reloc=2,class=CODE,delta=1,group=2
    39                           	psect	text28,global,reloc=2,class=CODE,delta=1,group=2
    40                           	psect	text29,global,reloc=2,class=CODE,delta=1,group=2
    41                           	psect	text30,global,reloc=2,class=CODE,delta=1,group=2
    42                           	psect	text31,global,reloc=2,class=CODE,delta=1,group=2
    43                           	psect	text32,global,reloc=2,class=CODE,delta=1
    44                           	psect	text33,global,reloc=2,class=CODE,delta=1
    45                           	psect	text34,global,reloc=2,class=CODE,delta=1
    46                           	psect	text35,global,reloc=2,class=CODE,delta=1
    47                           	psect	text36,global,reloc=2,class=CODE,delta=1
    48                           	psect	text37,global,reloc=2,class=CODE,delta=1,group=2
    49                           	psect	intsave_regs,global,class=BIGRAM,space=1,delta=1,noexec
    50                           	psect	rparam,global,class=COMRAM,space=1,delta=1,noexec
    51                           	psect	idloc,global,abs,ovrld,class=IDLOC,space=5,delta=1,noexec
    52                           	psect	config,global,abs,ovrld,class=CONFIG,space=4,delta=1,noexec
    53  0000                     
    54                           ; Version 2.20
    55                           ; Generated 12/02/2020 GMT
    56                           ; 
    57                           ; Copyright © 2020, Microchip Technology Inc. and its subsidiaries ("Microchip")
    58                           ; All rights reserved.
    59                           ; 
    60                           ; This software is developed by Microchip Technology Inc. and its subsidiaries ("Microch
      +                          ip").
    61                           ; 
    62                           ; Redistribution and use in source and binary forms, with or without modification, are
    63                           ; permitted provided that the following conditions are met:
    64                           ; 
    65                           ;     1. Redistributions of source code must retain the above copyright notice, this lis
      +                          t of
    66                           ;        conditions and the following disclaimer.
    67                           ; 
    68                           ;     2. Redistributions in binary form must reproduce the above copyright notice, this 
      +                          list
    69                           ;        of conditions and the following disclaimer in the documentation and/or other
    70                           ;        materials provided with the distribution.
    71                           ; 
    72                           ;     3. Microchip's name may not be used to endorse or promote products derived from th
      +                          is
    73                           ;        software without specific prior written permission.
    74                           ; 
    75                           ; THIS SOFTWARE IS PROVIDED BY MICROCHIP "AS IS" AND ANY EXPRESS OR IMPLIED WARRANTIES,
    76                           ; INCLUDING, BUT NOT LIMITED TO, THE IMPLIED WARRANTIES OF MERCHANTABILITY AND FITNESS F
      +                          OR
    77                           ; PURPOSE ARE DISCLAIMED.  IN NO EVENT SHALL MICROCHIP BE LIABLE FOR ANY DIRECT, INDIREC
      +                          T,
    78                           ; INCIDENTAL, SPECIAL, EXEMPLARY, OR CONSEQUENTIAL DAMAGES (INCLUDING BUT NOT LIMITED TO
    79                           ; PROCUREMENT OF SUBSTITUTE GOODS OR SERVICES; LOSS OF USE, DATA OR PROFITS; OR BUSINESS
    80                           ; INTERRUPTION) HOWSOEVER CAUSED AND ON ANY THEORY OF LIABILITY, WHETHER IN CONTRACT, ST
      +                          RICT
    81                           ; LIABILITY, OR TORT (INCLUDING NEGLIGENCE OR OTHERWISE) ARISING IN ANY WAY OUT OF THE U
      +                          SE OF
    82                           ; THIS SOFTWARE, EVEN IF ADVISED OF THE POSSIBILITY OF SUCH DAMAGE.
    83                           ; 
    84                           ; 
    85                           ; Code-generator required, PIC18F4550 Definitions
    86                           ; 
    87                           ; SFR Addresses
    88  0000                     _TRISAbits	set	3986
    89  0000                     _T2CONbits	set	4042
    90  0000                     _TMR2	set	4044
    91  0000                     _CCP1CON	set	4029
    92  0000                     _T2CON	set	4042
    93  0000                     _PORTCbits	set	3970
    94  0000                     _TRISCbits	set	3988
    95  0000                     _CCPR1L	set	4030
    96  0000                     _PR2	set	4043
    97  0000                     _ADRESH	set	4036
    98  0000                     _ADRESL	set	4035
    99  0000                     _ADCON0bits	set	4034
   100  0000                     _ADCON2	set	4032
   101  0000                     _ADCON1	set	4033
   102  0000                     _ADCON0	set	4034
   103  0000                     _LATC	set	3979
   104  0000                     _LATEbits	set	3981
   105  0000                     _TRISC	set	3988
   106  0000                     _TRISEbits	set	3990
   107                           
   108                           	psect	smallconst
   109  000800                     __psmallconst:
   110                           	callstack 0
   111  000800  00                 	db	0
   112  000801                     STR_4:
   113  000801  44                 	db	68	;'D'
   114  000802  75                 	db	117	;'u'
   115  000803  74                 	db	116	;'t'
   116  000804  79                 	db	121	;'y'
   117  000805  20                 	db	32
   118  000806  43                 	db	67	;'C'
   119  000807  79                 	db	121	;'y'
   120  000808  63                 	db	99	;'c'
   121  000809  6C                 	db	108	;'l'
   122  00080A  65                 	db	101	;'e'
   123  00080B  3A                 	db	58	;':'
   124  00080C  00                 	db	0
   125  00080D                     STR_3:
   126  00080D  20                 	db	32
   127  00080E  20                 	db	32
   128  00080F  20                 	db	32
   129  000810  20                 	db	32
   130  000811  20                 	db	32
   131  000812  20                 	db	32
   132  000813  20                 	db	32
   133  000814  20                 	db	32
   134  000815  20                 	db	32
   135  000816  00                 	db	0
   136  000817                     STR_6:
   137  000817  49                 	db	73	;'I'
   138  000818  4E                 	db	78	;'N'
   139  000819  46                 	db	70	;'F'
   140  00081A  00                 	db	0
   141  00081B                     STR_10:
   142  00081B  4E                 	db	78	;'N'
   143  00081C  41                 	db	65	;'A'
   144  00081D  4E                 	db	78	;'N'
   145  00081E  00                 	db	0
   146  00081F                     STR_7:
   147  00081F  69                 	db	105	;'i'
   148  000820  6E                 	db	110	;'n'
   149  000821  66                 	db	102	;'f'
   150  000822  00                 	db	0
   151  000823                     STR_11:
   152  000823  6E                 	db	110	;'n'
   153  000824  61                 	db	97	;'a'
   154  000825  6E                 	db	110	;'n'
   155  000826  00                 	db	0
   156  000827                     STR_14:
   157  000827  6C                 	db	108	;'l'
   158  000828  66                 	db	102	;'f'
   159  000829  00                 	db	0
   160  00082A                     STR_5:
   161  00082A  30                 	db	48	;'0'
   162  00082B  25                 	db	37
   163  00082C  00                 	db	0
   164  00082D                     STR_1:
   165  00082D  25                 	db	37
   166  00082E  66                 	db	102	;'f'
   167  00082F  00                 	db	0
   168  000830  00                 	db	0	; dummy byte at the end
   169  0000                     
   170                           ; #config settings
   171                           
   172                           	psect	cinit
   173  003516                     __pcinit:
   174                           	callstack 0
   175  003516                     start_initialization:
   176                           	callstack 0
   177  003516                     __initialization:
   178                           	callstack 0
   179                           
   180                           ; Clear objects allocated to BANK1 (80 bytes)
   181  003516  EE01  F000         	lfsr	0,__pbssBANK1
   182  00351A  0E50               	movlw	80
   183  00351C                     clear_0:
   184  00351C  6AEE               	clrf	postinc0,c
   185  00351E  06E8               	decf	wreg,f,c
   186  003520  E1FD               	bnz	clear_0
   187                           
   188                           ; Clear objects allocated to BANK0 (32 bytes)
   189  003522  EE00  F0C6         	lfsr	0,__pbssBANK0
   190  003526  0E20               	movlw	32
   191  003528                     clear_1:
   192  003528  6AEE               	clrf	postinc0,c
   193  00352A  06E8               	decf	wreg,f,c
   194  00352C  E1FD               	bnz	clear_1
   195  00352E                     end_of_initialization:
   196                           	callstack 0
   197  00352E                     __end_of__initialization:
   198                           	callstack 0
   199  00352E  0E00               	movlw	low (__Lmediumconst shr (0+16))
   200  003530  6EF8               	movwf	tblptru,c
   201  003532  0100               	movlb	0
   202  003534  EFCE  F018         	goto	_main	;jump to C main() function
   203                           
   204                           	psect	bssBANK0
   205  0000C6                     __pbssBANK0:
   206                           	callstack 0
   207  0000C6                     floorf@F524:
   208                           	callstack 0
   209  0000C6                     	ds	4
   210  0000CA                     ___fpclassifyf@F463:
   211                           	callstack 0
   212  0000CA                     	ds	4
   213  0000CE                     _nout:
   214                           	callstack 0
   215  0000CE                     	ds	2
   216  0000D0                     _width:
   217                           	callstack 0
   218  0000D0                     	ds	2
   219  0000D2                     _prec:
   220                           	callstack 0
   221  0000D2                     	ds	2
   222  0000D4                     _flags:
   223                           	callstack 0
   224  0000D4                     	ds	2
   225  0000D6                     _ccp1:
   226                           	callstack 0
   227  0000D6                     	ds	2
   228  0000D8                     _ccp:
   229                           	callstack 0
   230  0000D8                     	ds	2
   231  0000DA                     _cicloU1:
   232                           	callstack 0
   233  0000DA                     	ds	2
   234  0000DC                     _dc:
   235                           	callstack 0
   236  0000DC                     	ds	10
   237                           
   238                           	psect	bssBANK1
   239  000100                     __pbssBANK1:
   240                           	callstack 0
   241  000100                     _dbuf:
   242                           	callstack 0
   243  000100                     	ds	80
   244                           
   245                           	psect	cstackBANK0
   246  000060                     __pcstackBANK0:
   247                           	callstack 0
   248  000060                     efgtoa@ou:
   249                           	callstack 0
   250                           
   251                           ; 4 bytes @ 0x0
   252  000060                     	ds	4
   253  000064                     _efgtoa$974:
   254                           	callstack 0
   255                           
   256                           ; 2 bytes @ 0x4
   257  000064                     	ds	2
   258  000066                     _efgtoa$975:
   259                           	callstack 0
   260                           
   261                           ; 2 bytes @ 0x6
   262  000066                     	ds	2
   263  000068                     _efgtoa$980:
   264                           	callstack 0
   265                           
   266                           ; 2 bytes @ 0x8
   267  000068                     	ds	2
   268  00006A                     _efgtoa$984:
   269                           	callstack 0
   270                           
   271                           ; 2 bytes @ 0xA
   272  00006A                     	ds	2
   273  00006C                     _efgtoa$985:
   274                           	callstack 0
   275                           
   276                           ; 2 bytes @ 0xC
   277  00006C                     	ds	2
   278  00006E                     _efgtoa$986:
   279                           	callstack 0
   280                           
   281                           ; 2 bytes @ 0xE
   282  00006E                     	ds	2
   283  000070                     efgtoa@t:
   284                           	callstack 0
   285                           
   286                           ; 2 bytes @ 0x10
   287  000070                     	ds	2
   288  000072                     efgtoa@pp:
   289                           	callstack 0
   290                           
   291                           ; 2 bytes @ 0x12
   292  000072                     	ds	2
   293  000074                     efgtoa@m:
   294                           	callstack 0
   295                           
   296                           ; 2 bytes @ 0x14
   297  000074                     	ds	2
   298  000076                     efgtoa@ne:
   299                           	callstack 0
   300                           
   301                           ; 2 bytes @ 0x16
   302  000076                     	ds	2
   303  000078                     efgtoa@d:
   304                           	callstack 0
   305                           
   306                           ; 2 bytes @ 0x18
   307  000078                     	ds	2
   308  00007A                     efgtoa@sign:
   309                           	callstack 0
   310                           
   311                           ; 2 bytes @ 0x1A
   312  00007A                     	ds	2
   313  00007C                     efgtoa@p:
   314                           	callstack 0
   315                           
   316                           ; 2 bytes @ 0x1C
   317  00007C                     	ds	2
   318  00007E                     efgtoa@nmode:
   319                           	callstack 0
   320                           
   321                           ; 1 bytes @ 0x1E
   322  00007E                     	ds	1
   323  00007F                     efgtoa@w:
   324                           	callstack 0
   325                           
   326                           ; 2 bytes @ 0x1F
   327  00007F                     	ds	2
   328  000081                     efgtoa@mode:
   329                           	callstack 0
   330                           
   331                           ; 1 bytes @ 0x21
   332  000081                     	ds	1
   333  000082                     efgtoa@h:
   334                           	callstack 0
   335                           
   336                           ; 4 bytes @ 0x22
   337  000082                     	ds	4
   338  000086                     efgtoa@l:
   339                           	callstack 0
   340                           
   341                           ; 4 bytes @ 0x26
   342  000086                     	ds	4
   343  00008A                     efgtoa@i:
   344                           	callstack 0
   345                           
   346                           ; 2 bytes @ 0x2A
   347  00008A                     	ds	2
   348  00008C                     efgtoa@g:
   349                           	callstack 0
   350                           
   351                           ; 4 bytes @ 0x2C
   352  00008C                     	ds	4
   353  000090                     efgtoa@e:
   354                           	callstack 0
   355                           
   356                           ; 2 bytes @ 0x30
   357  000090                     	ds	2
   358  000092                     efgtoa@n:
   359                           	callstack 0
   360                           
   361                           ; 2 bytes @ 0x32
   362  000092                     	ds	2
   363  000094                     efgtoa@u:
   364                           	callstack 0
   365                           
   366                           ; 4 bytes @ 0x34
   367  000094                     	ds	4
   368  000098                     _vfpfcnvrt$1003:
   369                           	callstack 0
   370                           
   371                           ; 2 bytes @ 0x38
   372  000098                     	ds	2
   373  00009A                     vfpfcnvrt@f:
   374                           	callstack 0
   375                           
   376                           ; 4 bytes @ 0x3A
   377  00009A                     	ds	4
   378  00009E                     vfpfcnvrt@ct:
   379                           	callstack 0
   380                           
   381                           ; 3 bytes @ 0x3E
   382  00009E                     	ds	3
   383  0000A1                     vfpfcnvrt@c:
   384                           	callstack 0
   385                           
   386                           ; 1 bytes @ 0x41
   387  0000A1                     	ds	1
   388  0000A2                     ?_vfprintf:
   389                           	callstack 0
   390  0000A2                     vfprintf@fp:
   391                           	callstack 0
   392                           
   393                           ; 2 bytes @ 0x42
   394  0000A2                     	ds	2
   395  0000A4                     vfprintf@fmt:
   396                           	callstack 0
   397                           
   398                           ; 2 bytes @ 0x44
   399  0000A4                     	ds	2
   400  0000A6                     vfprintf@ap:
   401                           	callstack 0
   402                           
   403                           ; 2 bytes @ 0x46
   404  0000A6                     	ds	2
   405  0000A8                     ?_sprintf:
   406                           	callstack 0
   407  0000A8                     sprintf@s:
   408                           	callstack 0
   409                           
   410                           ; 2 bytes @ 0x48
   411  0000A8                     	ds	2
   412  0000AA                     sprintf@fmt:
   413                           	callstack 0
   414                           
   415                           ; 2 bytes @ 0x4A
   416  0000AA                     	ds	8
   417  0000B2                     sprintf@ap:
   418                           	callstack 0
   419                           
   420                           ; 2 bytes @ 0x52
   421  0000B2                     	ds	2
   422  0000B4                     sprintf@f:
   423                           	callstack 0
   424                           
   425                           ; 6 bytes @ 0x54
   426  0000B4                     	ds	6
   427  0000BA                     ??_Ciclo_Util:
   428                           
   429                           ; 1 bytes @ 0x5A
   430  0000BA                     	ds	4
   431  0000BE                     Ciclo_Util@dutycyclet:
   432                           	callstack 0
   433                           
   434                           ; 4 bytes @ 0x5E
   435  0000BE                     	ds	4
   436  0000C2                     Ciclo_Util@dutycycle:
   437                           	callstack 0
   438                           
   439                           ; 4 bytes @ 0x62
   440  0000C2                     	ds	4
   441                           
   442                           	psect	cstackCOMRAM
   443  000001                     __pcstackCOMRAM:
   444                           	callstack 0
   445  000001                     ??_lcd_control:
   446  000001                     ??_lcd_dato:
   447  000001                     ?_strlen:
   448                           	callstack 0
   449  000001                     ?___fpclassifyf:
   450                           	callstack 0
   451  000001                     ?_isupper:
   452                           	callstack 0
   453  000001                     ?_strncmp:
   454                           	callstack 0
   455  000001                     ?___awdiv:
   456                           	callstack 0
   457  000001                     ?___awmod:
   458                           	callstack 0
   459  000001                     ?___fladd:
   460                           	callstack 0
   461  000001                     ?___flmul:
   462                           	callstack 0
   463  000001                     ?___flneg:
   464                           	callstack 0
   465  000001                     ?___fltol:
   466                           	callstack 0
   467  000001                     ?___xxtofl:
   468                           	callstack 0
   469  000001                     ___awdiv@dividend:
   470                           	callstack 0
   471  000001                     ___awmod@dividend:
   472                           	callstack 0
   473  000001                     isupper@c:
   474                           	callstack 0
   475  000001                     fputc@c:
   476                           	callstack 0
   477  000001                     strcpy@dest:
   478                           	callstack 0
   479  000001                     strlen@s:
   480                           	callstack 0
   481  000001                     strncmp@_l:
   482                           	callstack 0
   483  000001                     ___fleq@ff1:
   484                           	callstack 0
   485  000001                     ___flneg@f1:
   486                           	callstack 0
   487  000001                     ___fltol@f1:
   488                           	callstack 0
   489  000001                     ___fladd@b:
   490                           	callstack 0
   491  000001                     ___flmul@b:
   492                           	callstack 0
   493  000001                     ___xxtofl@val:
   494                           	callstack 0
   495  000001                     ___fpclassifyf@x:
   496                           	callstack 0
   497                           
   498                           ; 4 bytes @ 0x0
   499  000001                     	ds	1
   500  000002                     lcd_control@dato:
   501                           	callstack 0
   502  000002                     lcd_dato@dato:
   503                           	callstack 0
   504                           
   505                           ; 1 bytes @ 0x1
   506  000002                     	ds	1
   507  000003                     ??_isupper:
   508  000003                     ??_lcd_init:
   509  000003                     lcd_print@dato:
   510                           	callstack 0
   511  000003                     lcd_goto@x:
   512                           	callstack 0
   513  000003                     ___awdiv@divisor:
   514                           	callstack 0
   515  000003                     ___awmod@divisor:
   516                           	callstack 0
   517  000003                     fputc@fp:
   518                           	callstack 0
   519  000003                     strcpy@src:
   520                           	callstack 0
   521  000003                     strlen@a:
   522                           	callstack 0
   523  000003                     strncmp@_r:
   524                           	callstack 0
   525                           
   526                           ; 2 bytes @ 0x2
   527  000003                     	ds	2
   528  000005                     ??_fputc:
   529  000005                     ??___fpclassifyf:
   530  000005                     ??_strcpy:
   531  000005                     ??___fltol:
   532  000005                     ??___xxtofl:
   533  000005                     ___awdiv@counter:
   534                           	callstack 0
   535  000005                     ___awmod@counter:
   536                           	callstack 0
   537  000005                     lcd_goto@y:
   538                           	callstack 0
   539  000005                     strncmp@n:
   540                           	callstack 0
   541  000005                     ___fleq@ff2:
   542                           	callstack 0
   543  000005                     ___fladd@a:
   544                           	callstack 0
   545  000005                     ___flmul@a:
   546                           	callstack 0
   547                           
   548                           ; 4 bytes @ 0x4
   549  000005                     	ds	1
   550  000006                     ___awdiv@sign:
   551                           	callstack 0
   552  000006                     ___awmod@sign:
   553                           	callstack 0
   554                           
   555                           ; 1 bytes @ 0x5
   556  000006                     	ds	1
   557  000007                     ??_strncmp:
   558  000007                     ??_lcd_goto:
   559  000007                     ?_tolower:
   560                           	callstack 0
   561  000007                     ___awdiv@quotient:
   562                           	callstack 0
   563  000007                     strcpy@s:
   564                           	callstack 0
   565  000007                     tolower@c:
   566                           	callstack 0
   567                           
   568                           ; 2 bytes @ 0x6
   569  000007                     	ds	1
   570  000008                     strncmp@l:
   571                           	callstack 0
   572                           
   573                           ; 2 bytes @ 0x7
   574  000008                     	ds	1
   575  000009                     ??___fladd:
   576  000009                     ??___flmul:
   577  000009                     ??_tolower:
   578  000009                     ??___fleq:
   579  000009                     lcd_goto@posicion:
   580                           	callstack 0
   581  000009                     ___fltol@sign1:
   582                           	callstack 0
   583  000009                     ___xxtofl@sign:
   584                           	callstack 0
   585  000009                     ___fpclassifyf@e:
   586                           	callstack 0
   587  000009                     strcpy@d:
   588                           	callstack 0
   589                           
   590                           ; 2 bytes @ 0x8
   591  000009                     	ds	1
   592  00000A                     ___fltol@exp1:
   593                           	callstack 0
   594  00000A                     ___xxtofl@exp:
   595                           	callstack 0
   596  00000A                     fputs@s:
   597                           	callstack 0
   598  00000A                     strncmp@r:
   599                           	callstack 0
   600                           
   601                           ; 2 bytes @ 0x9
   602  00000A                     	ds	1
   603  00000B                     ___xxtofl@arg:
   604                           	callstack 0
   605  00000B                     ___fpclassifyf@u:
   606                           	callstack 0
   607                           
   608                           ; 4 bytes @ 0xA
   609  00000B                     	ds	1
   610  00000C                     fputs@fp:
   611                           	callstack 0
   612                           
   613                           ; 2 bytes @ 0xB
   614  00000C                     	ds	1
   615  00000D                     ___fladd@signs:
   616                           	callstack 0
   617  00000D                     ___flmul@sign:
   618                           	callstack 0
   619  00000D                     _tolower$1100:
   620                           	callstack 0
   621                           
   622                           ; 2 bytes @ 0xC
   623  00000D                     	ds	1
   624  00000E                     ___fladd@aexp:
   625                           	callstack 0
   626  00000E                     fputs@c:
   627                           	callstack 0
   628  00000E                     ___flmul@grs:
   629                           	callstack 0
   630                           
   631                           ; 4 bytes @ 0xD
   632  00000E                     	ds	1
   633  00000F                     ___fladd@bexp:
   634                           	callstack 0
   635  00000F                     fputs@i:
   636                           	callstack 0
   637                           
   638                           ; 2 bytes @ 0xE
   639  00000F                     	ds	1
   640  000010                     ___fladd@grs:
   641                           	callstack 0
   642                           
   643                           ; 1 bytes @ 0xF
   644  000010                     	ds	1
   645  000011                     ?_pad:
   646                           	callstack 0
   647  000011                     pad@fp:
   648                           	callstack 0
   649                           
   650                           ; 2 bytes @ 0x10
   651  000011                     	ds	1
   652  000012                     ___flmul@aexp:
   653                           	callstack 0
   654                           
   655                           ; 1 bytes @ 0x11
   656  000012                     	ds	1
   657  000013                     ___flmul@bexp:
   658                           	callstack 0
   659  000013                     pad@buf:
   660                           	callstack 0
   661                           
   662                           ; 2 bytes @ 0x12
   663  000013                     	ds	1
   664  000014                     ___flmul@prod:
   665                           	callstack 0
   666                           
   667                           ; 4 bytes @ 0x13
   668  000014                     	ds	1
   669  000015                     pad@p:
   670                           	callstack 0
   671                           
   672                           ; 2 bytes @ 0x14
   673  000015                     	ds	2
   674  000017                     ??_pad:
   675                           
   676                           ; 1 bytes @ 0x16
   677  000017                     	ds	1
   678  000018                     ___flmul@temp:
   679                           	callstack 0
   680  000018                     pad@i:
   681                           	callstack 0
   682                           
   683                           ; 2 bytes @ 0x17
   684  000018                     	ds	2
   685  00001A                     ?___fldiv:
   686                           	callstack 0
   687  00001A                     ?___flsub:
   688                           	callstack 0
   689  00001A                     pad@w:
   690                           	callstack 0
   691  00001A                     ___flge@ff1:
   692                           	callstack 0
   693  00001A                     ___flsub@b:
   694                           	callstack 0
   695  00001A                     ___fldiv@b:
   696                           	callstack 0
   697                           
   698                           ; 4 bytes @ 0x19
   699  00001A                     	ds	4
   700  00001E                     ___flge@ff2:
   701                           	callstack 0
   702  00001E                     ___flsub@a:
   703                           	callstack 0
   704  00001E                     ___fldiv@a:
   705                           	callstack 0
   706                           
   707                           ; 4 bytes @ 0x1D
   708  00001E                     	ds	4
   709  000022                     ??___fldiv:
   710  000022                     ??___flge:
   711                           
   712                           ; 1 bytes @ 0x21
   713  000022                     	ds	4
   714  000026                     ___fldiv@rem:
   715                           	callstack 0
   716                           
   717                           ; 4 bytes @ 0x25
   718  000026                     	ds	4
   719  00002A                     ___fldiv@sign:
   720                           	callstack 0
   721                           
   722                           ; 1 bytes @ 0x29
   723  00002A                     	ds	1
   724  00002B                     ___fldiv@new_exp:
   725                           	callstack 0
   726                           
   727                           ; 2 bytes @ 0x2A
   728  00002B                     	ds	2
   729  00002D                     ___fldiv@grs:
   730                           	callstack 0
   731                           
   732                           ; 4 bytes @ 0x2C
   733  00002D                     	ds	4
   734  000031                     ___fldiv@bexp:
   735                           	callstack 0
   736                           
   737                           ; 1 bytes @ 0x30
   738  000031                     	ds	1
   739  000032                     ___fldiv@aexp:
   740                           	callstack 0
   741                           
   742                           ; 1 bytes @ 0x31
   743  000032                     	ds	1
   744  000033                     ?_floorf:
   745                           	callstack 0
   746  000033                     floorf@x:
   747                           	callstack 0
   748                           
   749                           ; 4 bytes @ 0x32
   750  000033                     	ds	4
   751  000037                     ??_floorf:
   752                           
   753                           ; 1 bytes @ 0x36
   754  000037                     	ds	6
   755  00003D                     floorf@m:
   756                           	callstack 0
   757                           
   758                           ; 4 bytes @ 0x3C
   759  00003D                     	ds	4
   760  000041                     floorf@e:
   761                           	callstack 0
   762                           
   763                           ; 2 bytes @ 0x40
   764  000041                     	ds	2
   765  000043                     floorf@u:
   766                           	callstack 0
   767                           
   768                           ; 4 bytes @ 0x42
   769  000043                     	ds	4
   770  000047                     ?_efgtoa:
   771                           	callstack 0
   772  000047                     efgtoa@fp:
   773                           	callstack 0
   774                           
   775                           ; 2 bytes @ 0x46
   776  000047                     	ds	2
   777  000049                     efgtoa@f:
   778                           	callstack 0
   779                           
   780                           ; 4 bytes @ 0x48
   781  000049                     	ds	4
   782  00004D                     efgtoa@c:
   783                           	callstack 0
   784                           
   785                           ; 1 bytes @ 0x4C
   786  00004D                     	ds	1
   787  00004E                     ??_efgtoa:
   788                           
   789                           ; 1 bytes @ 0x4D
   790  00004E                     	ds	5
   791  000053                     ?_vfpfcnvrt:
   792                           	callstack 0
   793  000053                     vfpfcnvrt@fp:
   794                           	callstack 0
   795                           
   796                           ; 2 bytes @ 0x52
   797  000053                     	ds	2
   798  000055                     vfpfcnvrt@fmt:
   799                           	callstack 0
   800                           
   801                           ; 2 bytes @ 0x54
   802  000055                     	ds	2
   803  000057                     vfpfcnvrt@ap:
   804                           	callstack 0
   805                           
   806                           ; 2 bytes @ 0x56
   807  000057                     	ds	2
   808  000059                     ??_vfpfcnvrt:
   809                           
   810                           ; 1 bytes @ 0x58
   811  000059                     	ds	4
   812  00005D                     vfprintf@cfmt:
   813                           	callstack 0
   814                           
   815                           ; 2 bytes @ 0x5C
   816  00005D                     	ds	2
   817  00005F                     ??_main:
   818                           
   819                           ; 1 bytes @ 0x5E
   820  00005F                     	ds	1
   821                           
   822 ;;
   823 ;;Main: autosize = 0, tempsize = 1, incstack = 0, save=0
   824 ;;
   825 ;; *************** function _main *****************
   826 ;; Defined at:
   827 ;;		line 9 in file "PWM.c"
   828 ;; Parameters:    Size  Location     Type
   829 ;;		None
   830 ;; Auto vars:     Size  Location     Type
   831 ;;		None
   832 ;; Return value:  Size  Location     Type
   833 ;;                  1    wreg      void 
   834 ;; Registers used:
   835 ;;		wreg, fsr1l, fsr1h, fsr2l, fsr2h, status,2, status,0, tblptrl, tblptrh, tblptru, prodl, prodh, cstack
   836 ;; Tracked objects:
   837 ;;		On entry : 0/0
   838 ;;		On exit  : 0/0
   839 ;;		Unchanged: 0/0
   840 ;; Data sizes:     COMRAM   BANK0   BANK1   BANK2   BANK3   BANK4   BANK5   BANK6   BANK7
   841 ;;      Params:         0       0       0       0       0       0       0       0       0
   842 ;;      Locals:         0       0       0       0       0       0       0       0       0
   843 ;;      Temps:          1       0       0       0       0       0       0       0       0
   844 ;;      Totals:         1       0       0       0       0       0       0       0       0
   845 ;;Total ram usage:        1 bytes
   846 ;; Hardware stack levels required when called:    9
   847 ;; This function calls:
   848 ;;		_Ciclo_Util
   849 ;;		_Configuracion_Registros
   850 ;;		_PWM
   851 ;;		_lcd_clear_display
   852 ;;		_lcd_cursor_home
   853 ;;		_lcd_goto
   854 ;;		_lcd_init
   855 ;;		_lcd_print
   856 ;; This function is called by:
   857 ;;		Startup code after reset
   858 ;; This function uses a non-reentrant model
   859 ;;
   860                           
   861                           	psect	text0
   862  00319C                     __ptext0:
   863                           	callstack 0
   864  00319C                     _main:
   865                           	callstack 22
   866  00319C                     
   867                           ;PWM.c: 13:     TRISAbits.RA0=1;
   868  00319C  8092               	bsf	146,0,c	;volatile
   869                           
   870                           ;PWM.c: 14:     TRISCbits.RC2=0;
   871  00319E  9494               	bcf	148,2,c	;volatile
   872  0031A0                     
   873                           ;PWM.c: 15:     Configuracion_Registros ();
   874  0031A0  ECA5  F01A         	call	_Configuracion_Registros	;wreg free
   875  0031A4                     
   876                           ;PWM.c: 16:     lcd_init ();
   877  0031A4  ECEE  F019         	call	_lcd_init	;wreg free
   878  0031A8                     
   879                           ;PWM.c: 17:     lcd_clear_display ();
   880  0031A8  ECB0  F01A         	call	_lcd_clear_display	;wreg free
   881  0031AC                     
   882                           ;PWM.c: 18:     lcd_cursor_home ();
   883  0031AC  ECAC  F01A         	call	_lcd_cursor_home	;wreg free
   884  0031B0                     
   885                           ;PWM.c: 19:     lcd_print ("Duty Cycle:");
   886  0031B0  0E01               	movlw	low STR_4
   887  0031B2  6E03               	movwf	lcd_print@dato^0,c
   888  0031B4  0E08               	movlw	high STR_4
   889  0031B6  6E04               	movwf	(lcd_print@dato+1)^0,c
   890  0031B8  ECFD  F018         	call	_lcd_print	;wreg free
   891  0031BC                     
   892                           ;PWM.c: 20:     lcd_goto (0,2);
   893  0031BC  0E00               	movlw	0
   894  0031BE  6E04               	movwf	(lcd_goto@x+1)^0,c
   895  0031C0  0E00               	movlw	0
   896  0031C2  6E03               	movwf	lcd_goto@x^0,c
   897  0031C4  0E00               	movlw	0
   898  0031C6  6E06               	movwf	(lcd_goto@y+1)^0,c
   899  0031C8  0E02               	movlw	2
   900  0031CA  6E05               	movwf	lcd_goto@y^0,c
   901  0031CC  EC83  F019         	call	_lcd_goto	;wreg free
   902  0031D0                     
   903                           ;PWM.c: 21:     lcd_print ("0%");
   904  0031D0  0E2A               	movlw	low STR_5
   905  0031D2  6E03               	movwf	lcd_print@dato^0,c
   906  0031D4  0E08               	movlw	high STR_5
   907  0031D6  6E04               	movwf	(lcd_print@dato+1)^0,c
   908  0031D8  ECFD  F018         	call	_lcd_print	;wreg free
   909  0031DC                     l3788:
   910                           
   911                           ;PWM.c: 23:     {;PWM.c: 25:         Ciclo_Util ();
   912  0031DC  ECBB  F013         	call	_Ciclo_Util	;wreg free
   913  0031E0                     
   914                           ;PWM.c: 26:         _delay((unsigned long)((100)*(4000000/4000.0)));
   915  0031E0  0E82               	movlw	130
   916  0031E2  6E5F               	movwf	??_main^0,c
   917  0031E4  0EDE               	movlw	222
   918  0031E6                     u4557:
   919  0031E6  2EE8               	decfsz	wreg,f,c
   920  0031E8  D7FE               	bra	u4557
   921  0031EA  2E5F               	decfsz	??_main^0,f,c
   922  0031EC  D7FC               	bra	u4557
   923  0031EE                     
   924                           ;PWM.c: 27:         PWM ();
   925  0031EE  EC1D  F018         	call	_PWM	;wreg free
   926  0031F2  EFEE  F018         	goto	l3788
   927  0031F6  EF00  F000         	goto	start
   928  0031FA                     __end_of_main:
   929                           	callstack 0
   930                           
   931 ;; *************** function _lcd_init *****************
   932 ;; Defined at:
   933 ;;		line 23 in file "./LCD.h"
   934 ;; Parameters:    Size  Location     Type
   935 ;;		None
   936 ;; Auto vars:     Size  Location     Type
   937 ;;		None
   938 ;; Return value:  Size  Location     Type
   939 ;;                  1    wreg      void 
   940 ;; Registers used:
   941 ;;		wreg, status,2, status,0, cstack
   942 ;; Tracked objects:
   943 ;;		On entry : 0/0
   944 ;;		On exit  : 0/0
   945 ;;		Unchanged: 0/0
   946 ;; Data sizes:     COMRAM   BANK0   BANK1   BANK2   BANK3   BANK4   BANK5   BANK6   BANK7
   947 ;;      Params:         0       0       0       0       0       0       0       0       0
   948 ;;      Locals:         0       0       0       0       0       0       0       0       0
   949 ;;      Temps:          1       0       0       0       0       0       0       0       0
   950 ;;      Totals:         1       0       0       0       0       0       0       0       0
   951 ;;Total ram usage:        1 bytes
   952 ;; Hardware stack levels used:    1
   953 ;; Hardware stack levels required when called:    2
   954 ;; This function calls:
   955 ;;		_lcd_control
   956 ;; This function is called by:
   957 ;;		_main
   958 ;; This function uses a non-reentrant model
   959 ;;
   960                           
   961                           	psect	text1
   962  0033DC                     __ptext1:
   963                           	callstack 0
   964  0033DC                     _lcd_init:
   965                           	callstack 28
   966  0033DC                     
   967                           ;./LCD.h: 25:     TRISEbits.TRISE0 = 0;
   968  0033DC  9096               	bcf	150,0,c	;volatile
   969                           
   970                           ;./LCD.h: 26:     TRISEbits.TRISE1 = 0;
   971  0033DE  9296               	bcf	150,1,c	;volatile
   972  0033E0                     
   973                           ;./LCD.h: 27:     TRISC = 0b00001111;
   974  0033E0  0E0F               	movlw	15
   975  0033E2  6E94               	movwf	148,c	;volatile
   976  0033E4                     
   977                           ;./LCD.h: 28:     LATEbits.LATE0 = 0;
   978  0033E4  908D               	bcf	141,0,c	;volatile
   979  0033E6                     
   980                           ;./LCD.h: 29:     LATEbits.LATE1 = 0;
   981  0033E6  928D               	bcf	141,1,c	;volatile
   982                           
   983                           ;./LCD.h: 30:     LATC = 0;
   984  0033E8  0E00               	movlw	0
   985  0033EA  6E8B               	movwf	139,c	;volatile
   986  0033EC                     
   987                           ;./LCD.h: 34:     _delay((unsigned long)((50)*(4000000/4000.0)));
   988  0033EC  0E41               	movlw	65
   989  0033EE  6E03               	movwf	??_lcd_init^0,c
   990  0033F0  0EEE               	movlw	238
   991  0033F2                     u4567:
   992  0033F2  2EE8               	decfsz	wreg,f,c
   993  0033F4  D7FE               	bra	u4567
   994  0033F6  2E03               	decfsz	??_lcd_init^0,f,c
   995  0033F8  D7FC               	bra	u4567
   996  0033FA  D000               	nop2	
   997  0033FC                     
   998                           ;./LCD.h: 35:     lcd_control(0x02);
   999  0033FC  0E02               	movlw	2
  1000  0033FE  EC5E  F01A         	call	_lcd_control
  1001  003402                     
  1002                           ;./LCD.h: 36:     lcd_control(0x28);
  1003  003402  0E28               	movlw	40
  1004  003404  EC5E  F01A         	call	_lcd_control
  1005  003408                     
  1006                           ;./LCD.h: 37:     lcd_control(0x0C);
  1007  003408  0E0C               	movlw	12
  1008  00340A  EC5E  F01A         	call	_lcd_control
  1009  00340E                     
  1010                           ;./LCD.h: 38:     lcd_control(0x06);
  1011  00340E  0E06               	movlw	6
  1012  003410  EC5E  F01A         	call	_lcd_control
  1013  003414  0012               	return		;funcret
  1014  003416                     __end_of_lcd_init:
  1015                           	callstack 0
  1016                           
  1017 ;; *************** function _lcd_cursor_home *****************
  1018 ;; Defined at:
  1019 ;;		line 79 in file "./LCD.h"
  1020 ;; Parameters:    Size  Location     Type
  1021 ;;		None
  1022 ;; Auto vars:     Size  Location     Type
  1023 ;;		None
  1024 ;; Return value:  Size  Location     Type
  1025 ;;                  1    wreg      void 
  1026 ;; Registers used:
  1027 ;;		wreg, status,2, status,0, cstack
  1028 ;; Tracked objects:
  1029 ;;		On entry : 0/0
  1030 ;;		On exit  : 0/0
  1031 ;;		Unchanged: 0/0
  1032 ;; Data sizes:     COMRAM   BANK0   BANK1   BANK2   BANK3   BANK4   BANK5   BANK6   BANK7
  1033 ;;      Params:         0       0       0       0       0       0       0       0       0
  1034 ;;      Locals:         0       0       0       0       0       0       0       0       0
  1035 ;;      Temps:          0       0       0       0       0       0       0       0       0
  1036 ;;      Totals:         0       0       0       0       0       0       0       0       0
  1037 ;;Total ram usage:        0 bytes
  1038 ;; Hardware stack levels used:    1
  1039 ;; Hardware stack levels required when called:    2
  1040 ;; This function calls:
  1041 ;;		_lcd_control
  1042 ;; This function is called by:
  1043 ;;		_main
  1044 ;; This function uses a non-reentrant model
  1045 ;;
  1046                           
  1047                           	psect	text2
  1048  003558                     __ptext2:
  1049                           	callstack 0
  1050  003558                     _lcd_cursor_home:
  1051                           	callstack 28
  1052  003558                     
  1053                           ;./LCD.h: 80:     lcd_control(0x02);
  1054  003558  0E02               	movlw	2
  1055  00355A  EC5E  F01A         	call	_lcd_control
  1056  00355E  0012               	return		;funcret
  1057  003560                     __end_of_lcd_cursor_home:
  1058                           	callstack 0
  1059                           
  1060 ;; *************** function _lcd_clear_display *****************
  1061 ;; Defined at:
  1062 ;;		line 72 in file "./LCD.h"
  1063 ;; Parameters:    Size  Location     Type
  1064 ;;		None
  1065 ;; Auto vars:     Size  Location     Type
  1066 ;;		None
  1067 ;; Return value:  Size  Location     Type
  1068 ;;                  1    wreg      void 
  1069 ;; Registers used:
  1070 ;;		wreg, status,2, status,0, cstack
  1071 ;; Tracked objects:
  1072 ;;		On entry : 0/0
  1073 ;;		On exit  : 0/0
  1074 ;;		Unchanged: 0/0
  1075 ;; Data sizes:     COMRAM   BANK0   BANK1   BANK2   BANK3   BANK4   BANK5   BANK6   BANK7
  1076 ;;      Params:         0       0       0       0       0       0       0       0       0
  1077 ;;      Locals:         0       0       0       0       0       0       0       0       0
  1078 ;;      Temps:          0       0       0       0       0       0       0       0       0
  1079 ;;      Totals:         0       0       0       0       0       0       0       0       0
  1080 ;;Total ram usage:        0 bytes
  1081 ;; Hardware stack levels used:    1
  1082 ;; Hardware stack levels required when called:    2
  1083 ;; This function calls:
  1084 ;;		_lcd_control
  1085 ;; This function is called by:
  1086 ;;		_main
  1087 ;; This function uses a non-reentrant model
  1088 ;;
  1089                           
  1090                           	psect	text3
  1091  003560                     __ptext3:
  1092                           	callstack 0
  1093  003560                     _lcd_clear_display:
  1094                           	callstack 28
  1095  003560                     
  1096                           ;./LCD.h: 73:     lcd_control(0x01);
  1097  003560  0E01               	movlw	1
  1098  003562  EC5E  F01A         	call	_lcd_control
  1099  003566  0012               	return		;funcret
  1100  003568                     __end_of_lcd_clear_display:
  1101                           	callstack 0
  1102                           
  1103 ;; *************** function _PWM *****************
  1104 ;; Defined at:
  1105 ;;		line 40 in file "./Configuracion.h"
  1106 ;; Parameters:    Size  Location     Type
  1107 ;;		None
  1108 ;; Auto vars:     Size  Location     Type
  1109 ;;		None
  1110 ;; Return value:  Size  Location     Type
  1111 ;;                  1    wreg      void 
  1112 ;; Registers used:
  1113 ;;		wreg, status,2, status,0, prodl, prodh
  1114 ;; Tracked objects:
  1115 ;;		On entry : 0/0
  1116 ;;		On exit  : 0/0
  1117 ;;		Unchanged: 0/0
  1118 ;; Data sizes:     COMRAM   BANK0   BANK1   BANK2   BANK3   BANK4   BANK5   BANK6   BANK7
  1119 ;;      Params:         0       0       0       0       0       0       0       0       0
  1120 ;;      Locals:         0       0       0       0       0       0       0       0       0
  1121 ;;      Temps:          0       0       0       0       0       0       0       0       0
  1122 ;;      Totals:         0       0       0       0       0       0       0       0       0
  1123 ;;Total ram usage:        0 bytes
  1124 ;; Hardware stack levels used:    1
  1125 ;; This function calls:
  1126 ;;		Nothing
  1127 ;; This function is called by:
  1128 ;;		_main
  1129 ;; This function uses a non-reentrant model
  1130 ;;
  1131                           
  1132                           	psect	text4
  1133  00303A                     __ptext4:
  1134                           	callstack 0
  1135  00303A                     _PWM:
  1136                           	callstack 30
  1137  00303A                     
  1138                           ;./Configuracion.h: 51:     PR2 = 99;
  1139  00303A  0E63               	movlw	99
  1140  00303C  6ECB               	movwf	203,c	;volatile
  1141  00303E                     
  1142                           ;./Configuracion.h: 52:     ccp = cicloU1;
  1143  00303E  C0DA  F0D8         	movff	_cicloU1,_ccp
  1144  003042  C0DB  F0D9         	movff	_cicloU1+1,_ccp+1
  1145  003046                     
  1146                           ;./Configuracion.h: 53:     CCPR1L = ccp;
  1147  003046  C0D8  FFBE         	movff	_ccp,4030	;volatile
  1148  00304A                     
  1149                           ;./Configuracion.h: 54:     TRISCbits.RC1=0;
  1150  00304A  9294               	bcf	148,1,c	;volatile
  1151  00304C                     
  1152                           ;./Configuracion.h: 55:     PORTCbits.RC1=0;
  1153  00304C  9282               	bcf	130,1,c	;volatile
  1154  00304E                     
  1155                           ;./Configuracion.h: 56:     TRISCbits.RC2=0;
  1156  00304E  9494               	bcf	148,2,c	;volatile
  1157  003050                     
  1158                           ;./Configuracion.h: 58:     if(ccp >= 768 ){
  1159  003050  0100               	movlb	0	; () banked
  1160  003052  BFD9               	btfsc	(_ccp+1)& (0+255),7,b
  1161  003054  EF33  F018         	goto	u4521
  1162  003058  0E03               	movlw	3
  1163  00305A  5DD9               	subwf	(_ccp+1)& (0+255),w,b
  1164  00305C  A0D8               	btfss	status,0,c
  1165  00305E  EF33  F018         	goto	u4521
  1166  003062  EF35  F018         	goto	u4520
  1167  003066                     u4521:
  1168  003066  EF3B  F018         	goto	l3756
  1169  00306A                     u4520:
  1170  00306A                     
  1171                           ; BSR set to: 0
  1172                           ;./Configuracion.h: 59:         ccp1 = 3;
  1173  00306A  0E00               	movlw	0
  1174  00306C  6FD7               	movwf	(_ccp1+1)& (0+255),b
  1175  00306E  0E03               	movlw	3
  1176  003070  6FD6               	movwf	_ccp1& (0+255),b
  1177                           
  1178                           ;./Configuracion.h: 60:     }
  1179  003072  EF62  F018         	goto	l99
  1180  003076                     l3756:
  1181                           
  1182                           ; BSR set to: 0
  1183  003076  BFD9               	btfsc	(_ccp+1)& (0+255),7,b
  1184  003078  EF45  F018         	goto	u4531
  1185  00307C  0E02               	movlw	2
  1186  00307E  5DD9               	subwf	(_ccp+1)& (0+255),w,b
  1187  003080  A0D8               	btfss	status,0,c
  1188  003082  EF45  F018         	goto	u4531
  1189  003086  EF47  F018         	goto	u4530
  1190  00308A                     u4531:
  1191  00308A  EF4D  F018         	goto	l3760
  1192  00308E                     u4530:
  1193  00308E                     
  1194                           ; BSR set to: 0
  1195                           ;./Configuracion.h: 62:         ccp1 =2;
  1196  00308E  0E00               	movlw	0
  1197  003090  6FD7               	movwf	(_ccp1+1)& (0+255),b
  1198  003092  0E02               	movlw	2
  1199  003094  6FD6               	movwf	_ccp1& (0+255),b
  1200                           
  1201                           ;./Configuracion.h: 63:     }
  1202  003096  EF62  F018         	goto	l99
  1203  00309A                     l3760:
  1204                           
  1205                           ; BSR set to: 0
  1206  00309A  BFD9               	btfsc	(_ccp+1)& (0+255),7,b
  1207  00309C  EF56  F018         	goto	u4541
  1208  0030A0  05D9               	decf	(_ccp+1)& (0+255),w,b
  1209  0030A2  A0D8               	btfss	status,0,c
  1210  0030A4  EF56  F018         	goto	u4541
  1211  0030A8  EF58  F018         	goto	u4540
  1212  0030AC                     u4541:
  1213  0030AC  EF5E  F018         	goto	l3764
  1214  0030B0                     u4540:
  1215  0030B0                     
  1216                           ; BSR set to: 0
  1217                           ;./Configuracion.h: 65:         ccp1 = 1;
  1218  0030B0  0E00               	movlw	0
  1219  0030B2  6FD7               	movwf	(_ccp1+1)& (0+255),b
  1220  0030B4  0E01               	movlw	1
  1221  0030B6  6FD6               	movwf	_ccp1& (0+255),b
  1222                           
  1223                           ;./Configuracion.h: 66:     }
  1224  0030B8  EF62  F018         	goto	l99
  1225  0030BC                     l3764:
  1226                           
  1227                           ; BSR set to: 0
  1228                           ;./Configuracion.h: 68:         ccp1 = 0;
  1229  0030BC  0E00               	movlw	0
  1230  0030BE  6FD7               	movwf	(_ccp1+1)& (0+255),b
  1231  0030C0  0E00               	movlw	0
  1232  0030C2  6FD6               	movwf	_ccp1& (0+255),b
  1233  0030C4                     l99:
  1234                           
  1235                           ; BSR set to: 0
  1236                           ;./Configuracion.h: 71:     T2CON = 0x00;
  1237  0030C4  0E00               	movlw	0
  1238  0030C6  6ECA               	movwf	202,c	;volatile
  1239  0030C8                     
  1240                           ; BSR set to: 0
  1241                           ;./Configuracion.h: 72:     CCP1CON = (ccp1*16)+ 12;
  1242  0030C8  51D6               	movf	_ccp1& (0+255),w,b
  1243  0030CA  0D10               	mullw	16
  1244  0030CC  50F3               	movf	243,w,c
  1245  0030CE  0F0C               	addlw	12
  1246  0030D0  6EBD               	movwf	189,c	;volatile
  1247  0030D2                     
  1248                           ; BSR set to: 0
  1249                           ;./Configuracion.h: 73:     TMR2 = 0;
  1250  0030D2  0E00               	movlw	0
  1251  0030D4  6ECC               	movwf	204,c	;volatile
  1252  0030D6                     
  1253                           ; BSR set to: 0
  1254                           ;./Configuracion.h: 74:     T2CONbits.TMR2ON = 1;
  1255  0030D6  84CA               	bsf	202,2,c	;volatile
  1256  0030D8                     
  1257                           ; BSR set to: 0
  1258  0030D8  0012               	return		;funcret
  1259  0030DA                     __end_of_PWM:
  1260                           	callstack 0
  1261                           
  1262 ;; *************** function _Configuracion_Registros *****************
  1263 ;; Defined at:
  1264 ;;		line 10 in file "./Configuracion.h"
  1265 ;; Parameters:    Size  Location     Type
  1266 ;;		None
  1267 ;; Auto vars:     Size  Location     Type
  1268 ;;		None
  1269 ;; Return value:  Size  Location     Type
  1270 ;;                  1    wreg      void 
  1271 ;; Registers used:
  1272 ;;		wreg, status,2
  1273 ;; Tracked objects:
  1274 ;;		On entry : 0/0
  1275 ;;		On exit  : 0/0
  1276 ;;		Unchanged: 0/0
  1277 ;; Data sizes:     COMRAM   BANK0   BANK1   BANK2   BANK3   BANK4   BANK5   BANK6   BANK7
  1278 ;;      Params:         0       0       0       0       0       0       0       0       0
  1279 ;;      Locals:         0       0       0       0       0       0       0       0       0
  1280 ;;      Temps:          0       0       0       0       0       0       0       0       0
  1281 ;;      Totals:         0       0       0       0       0       0       0       0       0
  1282 ;;Total ram usage:        0 bytes
  1283 ;; Hardware stack levels used:    1
  1284 ;; This function calls:
  1285 ;;		Nothing
  1286 ;; This function is called by:
  1287 ;;		_main
  1288 ;; This function uses a non-reentrant model
  1289 ;;
  1290                           
  1291                           	psect	text5
  1292  00354A                     __ptext5:
  1293                           	callstack 0
  1294  00354A                     _Configuracion_Registros:
  1295                           	callstack 30
  1296  00354A                     
  1297                           ;./Configuracion.h: 12:     ADCON0=0;
  1298  00354A  0E00               	movlw	0
  1299  00354C  6EC2               	movwf	194,c	;volatile
  1300                           
  1301                           ;./Configuracion.h: 13:     ADCON1=14;
  1302  00354E  0E0E               	movlw	14
  1303  003550  6EC1               	movwf	193,c	;volatile
  1304                           
  1305                           ;./Configuracion.h: 14:     ADCON2=148;
  1306  003552  0E94               	movlw	148
  1307  003554  6EC0               	movwf	192,c	;volatile
  1308  003556  0012               	return		;funcret
  1309  003558                     __end_of_Configuracion_Registros:
  1310                           	callstack 0
  1311                           
  1312 ;; *************** function _Ciclo_Util *****************
  1313 ;; Defined at:
  1314 ;;		line 17 in file "./Configuracion.h"
  1315 ;; Parameters:    Size  Location     Type
  1316 ;;		None
  1317 ;; Auto vars:     Size  Location     Type
  1318 ;;  dutycycle       4   98[BANK0 ] float 
  1319 ;;  dutycyclet      4   94[BANK0 ] float 
  1320 ;; Return value:  Size  Location     Type
  1321 ;;                  1    wreg      void 
  1322 ;; Registers used:
  1323 ;;		wreg, fsr1l, fsr1h, fsr2l, fsr2h, status,2, status,0, tblptrl, tblptrh, tblptru, prodl, prodh, cstack
  1324 ;; Tracked objects:
  1325 ;;		On entry : 0/0
  1326 ;;		On exit  : 0/0
  1327 ;;		Unchanged: 0/0
  1328 ;; Data sizes:     COMRAM   BANK0   BANK1   BANK2   BANK3   BANK4   BANK5   BANK6   BANK7
  1329 ;;      Params:         0       0       0       0       0       0       0       0       0
  1330 ;;      Locals:         0       8       0       0       0       0       0       0       0
  1331 ;;      Temps:          0       4       0       0       0       0       0       0       0
  1332 ;;      Totals:         0      12       0       0       0       0       0       0       0
  1333 ;;Total ram usage:       12 bytes
  1334 ;; Hardware stack levels used:    1
  1335 ;; Hardware stack levels required when called:    8
  1336 ;; This function calls:
  1337 ;;		___fldiv
  1338 ;;		___flmul
  1339 ;;		___fltol
  1340 ;;		___xxtofl
  1341 ;;		_lcd_goto
  1342 ;;		_lcd_print
  1343 ;;		_sprintf
  1344 ;; This function is called by:
  1345 ;;		_main
  1346 ;; This function uses a non-reentrant model
  1347 ;;
  1348                           
  1349                           	psect	text6
  1350  002776                     __ptext6:
  1351                           	callstack 0
  1352  002776                     _Ciclo_Util:
  1353                           	callstack 22
  1354  002776                     
  1355                           ;./Configuracion.h: 19:     ADCON0bits.ADON=1;
  1356  002776  80C2               	bsf	194,0,c	;volatile
  1357                           
  1358                           ;./Configuracion.h: 20:     ADCON0bits.GO_DONE=1;
  1359  002778  82C2               	bsf	194,1,c	;volatile
  1360                           
  1361                           ;./Configuracion.h: 21:     while (ADCON0bits.GO_DONE==1)
  1362  00277A  EF4F  F014         	goto	l3738
  1363  00277E                     l3720:
  1364                           
  1365                           ;./Configuracion.h: 24:         float dutycycle=0;
  1366  00277E  0E00               	movlw	0
  1367  002780  0100               	movlb	0	; () banked
  1368  002782  6FC2               	movwf	Ciclo_Util@dutycycle& (0+255),b
  1369  002784  0E00               	movlw	0
  1370  002786  6FC3               	movwf	(Ciclo_Util@dutycycle+1)& (0+255),b
  1371  002788  0E00               	movlw	0
  1372  00278A  6FC4               	movwf	(Ciclo_Util@dutycycle+2)& (0+255),b
  1373  00278C  0E00               	movlw	0
  1374  00278E  6FC5               	movwf	(Ciclo_Util@dutycycle+3)& (0+255),b
  1375  002790                     
  1376                           ; BSR set to: 0
  1377                           ;./Configuracion.h: 26:         dutycyclet=ADRESL+(ADRESH*256);
  1378  002790  50C4               	movf	196,w,c	;volatile
  1379  002792  6FBB               	movwf	(??_Ciclo_Util+1)& (0+255),b
  1380  002794  6BBA               	clrf	??_Ciclo_Util& (0+255),b
  1381  002796  50C3               	movf	195,w,c	;volatile
  1382  002798  6FBC               	movwf	(??_Ciclo_Util+2)& (0+255),b
  1383  00279A  6BBD               	clrf	(??_Ciclo_Util+3)& (0+255),b
  1384  00279C  51BA               	movf	??_Ciclo_Util& (0+255),w,b
  1385  00279E  27BC               	addwf	(??_Ciclo_Util+2)& (0+255),f,b
  1386  0027A0  51BB               	movf	(??_Ciclo_Util+1)& (0+255),w,b
  1387  0027A2  23BD               	addwfc	(??_Ciclo_Util+3)& (0+255),f,b
  1388  0027A4  C0BC  F001         	movff	??_Ciclo_Util+2,___xxtofl@val
  1389  0027A8  C0BD  F002         	movff	??_Ciclo_Util+3,___xxtofl@val+1
  1390  0027AC  0E00               	movlw	0
  1391  0027AE  BE02               	btfsc	(___xxtofl@val+1)^0,7,c
  1392  0027B0  0EFF               	movlw	-1
  1393  0027B2  6E03               	movwf	(___xxtofl@val+2)^0,c
  1394  0027B4  6E04               	movwf	(___xxtofl@val+3)^0,c
  1395  0027B6  0E01               	movlw	1
  1396  0027B8  ECE1  F012         	call	___xxtofl
  1397  0027BC  C001  F0BE         	movff	?___xxtofl,Ciclo_Util@dutycyclet
  1398  0027C0  C002  F0BF         	movff	?___xxtofl+1,Ciclo_Util@dutycyclet+1
  1399  0027C4  C003  F0C0         	movff	?___xxtofl+2,Ciclo_Util@dutycyclet+2
  1400  0027C8  C004  F0C1         	movff	?___xxtofl+3,Ciclo_Util@dutycyclet+3
  1401  0027CC                     
  1402                           ;./Configuracion.h: 27:         dutycycle=dutycyclet*100/1023;
  1403  0027CC  0E00               	movlw	0
  1404  0027CE  6E05               	movwf	___flmul@a^0,c
  1405  0027D0  0E00               	movlw	0
  1406  0027D2  6E06               	movwf	(___flmul@a+1)^0,c
  1407  0027D4  0EC8               	movlw	200
  1408  0027D6  6E07               	movwf	(___flmul@a+2)^0,c
  1409  0027D8  0E42               	movlw	66
  1410  0027DA  6E08               	movwf	(___flmul@a+3)^0,c
  1411  0027DC  C0BE  F001         	movff	Ciclo_Util@dutycyclet,___flmul@b
  1412  0027E0  C0BF  F002         	movff	Ciclo_Util@dutycyclet+1,___flmul@b+1
  1413  0027E4  C0C0  F003         	movff	Ciclo_Util@dutycyclet+2,___flmul@b+2
  1414  0027E8  C0C1  F004         	movff	Ciclo_Util@dutycyclet+3,___flmul@b+3
  1415  0027EC  EC51  F00C         	call	___flmul	;wreg free
  1416  0027F0  C001  F01A         	movff	?___flmul,___fldiv@b
  1417  0027F4  C002  F01B         	movff	?___flmul+1,___fldiv@b+1
  1418  0027F8  C003  F01C         	movff	?___flmul+2,___fldiv@b+2
  1419  0027FC  C004  F01D         	movff	?___flmul+3,___fldiv@b+3
  1420  002800  0E00               	movlw	0
  1421  002802  6E1E               	movwf	___fldiv@a^0,c
  1422  002804  0EC0               	movlw	192
  1423  002806  6E1F               	movwf	(___fldiv@a+1)^0,c
  1424  002808  0E7F               	movlw	127
  1425  00280A  6E20               	movwf	(___fldiv@a+2)^0,c
  1426  00280C  0E44               	movlw	68
  1427  00280E  6E21               	movwf	(___fldiv@a+3)^0,c
  1428  002810  EC66  F00E         	call	___fldiv	;wreg free
  1429  002814  C01A  F0C2         	movff	?___fldiv,Ciclo_Util@dutycycle
  1430  002818  C01B  F0C3         	movff	?___fldiv+1,Ciclo_Util@dutycycle+1
  1431  00281C  C01C  F0C4         	movff	?___fldiv+2,Ciclo_Util@dutycycle+2
  1432  002820  C01D  F0C5         	movff	?___fldiv+3,Ciclo_Util@dutycycle+3
  1433  002824                     
  1434                           ;./Configuracion.h: 28:         cicloU1 = dutycycle;
  1435  002824  C0C2  F001         	movff	Ciclo_Util@dutycycle,___fltol@f1
  1436  002828  C0C3  F002         	movff	Ciclo_Util@dutycycle+1,___fltol@f1+1
  1437  00282C  C0C4  F003         	movff	Ciclo_Util@dutycycle+2,___fltol@f1+2
  1438  002830  C0C5  F004         	movff	Ciclo_Util@dutycycle+3,___fltol@f1+3
  1439  002834  EC57  F014         	call	___fltol	;wreg free
  1440  002838  C001  F0DA         	movff	?___fltol,_cicloU1
  1441  00283C  C002  F0DB         	movff	?___fltol+1,_cicloU1+1
  1442  002840                     
  1443                           ;./Configuracion.h: 29:         sprintf (dc, "%f", dutycycle);
  1444  002840  0EDC               	movlw	low _dc
  1445  002842  0100               	movlb	0	; () banked
  1446  002844  6FA8               	movwf	sprintf@s& (0+255),b
  1447  002846  0E00               	movlw	high _dc
  1448  002848  6FA9               	movwf	(sprintf@s+1)& (0+255),b
  1449  00284A  0E2D               	movlw	low STR_1
  1450  00284C  6FAA               	movwf	sprintf@fmt& (0+255),b
  1451  00284E  0E08               	movlw	high STR_1
  1452  002850  6FAB               	movwf	(sprintf@fmt+1)& (0+255),b
  1453  002852  C0C2  F0AC         	movff	Ciclo_Util@dutycycle,?_sprintf+4
  1454  002856  C0C3  F0AD         	movff	Ciclo_Util@dutycycle+1,?_sprintf+5
  1455  00285A  C0C4  F0AE         	movff	Ciclo_Util@dutycycle+2,?_sprintf+6
  1456  00285E  C0C5  F0AF         	movff	Ciclo_Util@dutycycle+3,?_sprintf+7
  1457  002862  EC5A  F019         	call	_sprintf	;wreg free
  1458  002866                     
  1459                           ;./Configuracion.h: 30:         lcd_goto (0,2);
  1460  002866  0E00               	movlw	0
  1461  002868  6E04               	movwf	(lcd_goto@x+1)^0,c
  1462  00286A  0E00               	movlw	0
  1463  00286C  6E03               	movwf	lcd_goto@x^0,c
  1464  00286E  0E00               	movlw	0
  1465  002870  6E06               	movwf	(lcd_goto@y+1)^0,c
  1466  002872  0E02               	movlw	2
  1467  002874  6E05               	movwf	lcd_goto@y^0,c
  1468  002876  EC83  F019         	call	_lcd_goto	;wreg free
  1469  00287A                     
  1470                           ;./Configuracion.h: 31:         lcd_print (dc);
  1471  00287A  0EDC               	movlw	low _dc
  1472  00287C  6E03               	movwf	lcd_print@dato^0,c
  1473  00287E  0E00               	movlw	high _dc
  1474  002880  6E04               	movwf	(lcd_print@dato+1)^0,c
  1475  002882  ECFD  F018         	call	_lcd_print	;wreg free
  1476  002886                     
  1477                           ;./Configuracion.h: 32:         lcd_print ("%");
  1478  002886  0E2B               	movlw	low (STR_5+1)
  1479  002888  6E03               	movwf	lcd_print@dato^0,c
  1480  00288A  0E08               	movlw	high (STR_5+1)
  1481  00288C  6E04               	movwf	(lcd_print@dato+1)^0,c
  1482  00288E  ECFD  F018         	call	_lcd_print	;wreg free
  1483  002892                     
  1484                           ;./Configuracion.h: 33:         lcd_print ("         ");
  1485  002892  0E0D               	movlw	low STR_3
  1486  002894  6E03               	movwf	lcd_print@dato^0,c
  1487  002896  0E08               	movlw	high STR_3
  1488  002898  6E04               	movwf	(lcd_print@dato+1)^0,c
  1489  00289A  ECFD  F018         	call	_lcd_print	;wreg free
  1490  00289E                     l3738:
  1491                           
  1492                           ;./Configuracion.h: 21:     while (ADCON0bits.GO_DONE==1)
  1493  00289E  B2C2               	btfsc	194,1,c	;volatile
  1494  0028A0  EF54  F014         	goto	u4511
  1495  0028A4  EF56  F014         	goto	u4510
  1496  0028A8                     u4511:
  1497  0028A8  EFBF  F013         	goto	l3720
  1498  0028AC                     u4510:
  1499  0028AC  0012               	return		;funcret
  1500  0028AE                     __end_of_Ciclo_Util:
  1501                           	callstack 0
  1502                           
  1503 ;; *************** function _sprintf *****************
  1504 ;; Defined at:
  1505 ;;		line 9 in file "C:\Program Files\Microchip\xc8\v2.20\pic\sources\c99\common\nf_sprintf.c"
  1506 ;; Parameters:    Size  Location     Type
  1507 ;;  s               2   72[BANK0 ] PTR unsigned char 
  1508 ;;		 -> dc(10), 
  1509 ;;  fmt             2   74[BANK0 ] PTR const unsigned char 
  1510 ;;		 -> STR_1(3), 
  1511 ;; Auto vars:     Size  Location     Type
  1512 ;;  f               6   84[BANK0 ] struct _IO_FILE
  1513 ;;  ap              2   82[BANK0 ] PTR void [1]
  1514 ;;		 -> ?_sprintf(2), 
  1515 ;;  ret             2    0        int 
  1516 ;; Return value:  Size  Location     Type
  1517 ;;                  2   72[BANK0 ] int 
  1518 ;; Registers used:
  1519 ;;		wreg, fsr1l, fsr1h, fsr2l, fsr2h, status,2, status,0, tblptrl, tblptrh, tblptru, prodl, prodh, cstack
  1520 ;; Tracked objects:
  1521 ;;		On entry : 0/0
  1522 ;;		On exit  : 0/0
  1523 ;;		Unchanged: 0/0
  1524 ;; Data sizes:     COMRAM   BANK0   BANK1   BANK2   BANK3   BANK4   BANK5   BANK6   BANK7
  1525 ;;      Params:         0       8       0       0       0       0       0       0       0
  1526 ;;      Locals:         0      10       0       0       0       0       0       0       0
  1527 ;;      Temps:          0       0       0       0       0       0       0       0       0
  1528 ;;      Totals:         0      18       0       0       0       0       0       0       0
  1529 ;;Total ram usage:       18 bytes
  1530 ;; Hardware stack levels used:    1
  1531 ;; Hardware stack levels required when called:    7
  1532 ;; This function calls:
  1533 ;;		_vfprintf
  1534 ;; This function is called by:
  1535 ;;		_Ciclo_Util
  1536 ;; This function uses a non-reentrant model
  1537 ;;
  1538                           
  1539                           	psect	text7
  1540  0032B4                     __ptext7:
  1541                           	callstack 0
  1542  0032B4                     _sprintf:
  1543                           	callstack 22
  1544  0032B4  0EAC               	movlw	low (?_sprintf+4)
  1545  0032B6  0100               	movlb	0	; () banked
  1546  0032B8  6FB2               	movwf	sprintf@ap& (0+255),b
  1547  0032BA  0E00               	movlw	high (?_sprintf+4)
  1548  0032BC  6FB3               	movwf	(sprintf@ap+1)& (0+255),b
  1549  0032BE  C0A8  F0B4         	movff	sprintf@s,sprintf@f
  1550  0032C2  C0A9  F0B5         	movff	sprintf@s+1,sprintf@f+1
  1551  0032C6                     
  1552                           ; BSR set to: 0
  1553  0032C6  0E00               	movlw	0
  1554  0032C8  6FB7               	movwf	(sprintf@f+3)& (0+255),b
  1555  0032CA  0E00               	movlw	0
  1556  0032CC  6FB6               	movwf	(sprintf@f+2)& (0+255),b
  1557  0032CE                     
  1558                           ; BSR set to: 0
  1559  0032CE  0E00               	movlw	0
  1560  0032D0  6FB9               	movwf	(sprintf@f+5)& (0+255),b
  1561  0032D2  0E00               	movlw	0
  1562  0032D4  6FB8               	movwf	(sprintf@f+4)& (0+255),b
  1563  0032D6                     
  1564                           ; BSR set to: 0
  1565  0032D6  0EB4               	movlw	low sprintf@f
  1566  0032D8  6FA2               	movwf	vfprintf@fp& (0+255),b
  1567  0032DA  0E00               	movlw	high sprintf@f
  1568  0032DC  6FA3               	movwf	(vfprintf@fp+1)& (0+255),b
  1569  0032DE  C0AA  F0A4         	movff	sprintf@fmt,vfprintf@fmt
  1570  0032E2  C0AB  F0A5         	movff	sprintf@fmt+1,vfprintf@fmt+1
  1571  0032E6  0EB2               	movlw	low sprintf@ap
  1572  0032E8  6FA6               	movwf	vfprintf@ap& (0+255),b
  1573  0032EA  0E00               	movlw	high sprintf@ap
  1574  0032EC  6FA7               	movwf	(vfprintf@ap+1)& (0+255),b
  1575  0032EE  EC6D  F018         	call	_vfprintf	;wreg free
  1576  0032F2  0100               	movlb	0	; () banked
  1577  0032F4  51B6               	movf	(sprintf@f+2)& (0+255),w,b
  1578  0032F6  25A8               	addwf	sprintf@s& (0+255),w,b
  1579  0032F8  6ED9               	movwf	fsr2l,c
  1580  0032FA  51B7               	movf	(sprintf@f+3)& (0+255),w,b
  1581  0032FC  21A9               	addwfc	(sprintf@s+1)& (0+255),w,b
  1582  0032FE  6EDA               	movwf	fsr2h,c
  1583  003300  0E00               	movlw	0
  1584  003302  6EDF               	movwf	indf2,c
  1585  003304                     
  1586                           ; BSR set to: 0
  1587  003304  0012               	return		;funcret
  1588  003306                     __end_of_sprintf:
  1589                           	callstack 0
  1590                           
  1591 ;; *************** function _vfprintf *****************
  1592 ;; Defined at:
  1593 ;;		line 1368 in file "C:\Program Files\Microchip\xc8\v2.20\pic\sources\c99\common\doprnt.c"
  1594 ;; Parameters:    Size  Location     Type
  1595 ;;  fp              2   66[BANK0 ] PTR struct _IO_FILE
  1596 ;;		 -> sprintf@f(6), 
  1597 ;;  fmt             2   68[BANK0 ] PTR const unsigned char 
  1598 ;;		 -> STR_1(3), 
  1599 ;;  ap              2   70[BANK0 ] PTR PTR void 
  1600 ;;		 -> sprintf@ap(2), 
  1601 ;; Auto vars:     Size  Location     Type
  1602 ;;  cfmt            2   92[COMRAM] PTR unsigned char 
  1603 ;;		 -> STR_1(3), 
  1604 ;; Return value:  Size  Location     Type
  1605 ;;                  2   66[BANK0 ] int 
  1606 ;; Registers used:
  1607 ;;		wreg, fsr1l, fsr1h, fsr2l, fsr2h, status,2, status,0, tblptrl, tblptrh, tblptru, prodl, prodh, cstack
  1608 ;; Tracked objects:
  1609 ;;		On entry : 0/0
  1610 ;;		On exit  : 0/0
  1611 ;;		Unchanged: 0/0
  1612 ;; Data sizes:     COMRAM   BANK0   BANK1   BANK2   BANK3   BANK4   BANK5   BANK6   BANK7
  1613 ;;      Params:         0       6       0       0       0       0       0       0       0
  1614 ;;      Locals:         2       0       0       0       0       0       0       0       0
  1615 ;;      Temps:          0       0       0       0       0       0       0       0       0
  1616 ;;      Totals:         2       6       0       0       0       0       0       0       0
  1617 ;;Total ram usage:        8 bytes
  1618 ;; Hardware stack levels used:    1
  1619 ;; Hardware stack levels required when called:    6
  1620 ;; This function calls:
  1621 ;;		_vfpfcnvrt
  1622 ;; This function is called by:
  1623 ;;		_sprintf
  1624 ;; This function uses a non-reentrant model
  1625 ;;
  1626                           
  1627                           	psect	text8
  1628  0030DA                     __ptext8:
  1629                           	callstack 0
  1630  0030DA                     _vfprintf:
  1631                           	callstack 22
  1632  0030DA                     
  1633                           ;C:\Program Files\Microchip\xc8\v2.20\pic\sources\c99\common\doprnt.c: 1368: int vfprint
      +                          f(FILE *fp, const char *fmt, va_list ap);C:\Program Files\Microchip\xc8\v2.20\pic\source
      +                          s\c99\common\doprnt.c: 1369: {;C:\Program Files\Microchip\xc8\v2.20\pic\sources\c99\comm
      +                          on\doprnt.c: 1371:     char *cfmt;;C:\Program Files\Microchip\xc8\v2.20\pic\sources\c99\
      +                          common\doprnt.c: 1373:     cfmt = (char *)fmt;
  1634  0030DA  C0A4  F05D         	movff	vfprintf@fmt,vfprintf@cfmt
  1635  0030DE  C0A5  F05E         	movff	vfprintf@fmt+1,vfprintf@cfmt+1
  1636  0030E2                     
  1637                           ;C:\Program Files\Microchip\xc8\v2.20\pic\sources\c99\common\doprnt.c: 1374:     nout = 
      +                          0;
  1638  0030E2  0E00               	movlw	0
  1639  0030E4  0100               	movlb	0	; () banked
  1640  0030E6  6FCF               	movwf	(_nout+1)& (0+255),b
  1641  0030E8  0E00               	movlw	0
  1642  0030EA  6FCE               	movwf	_nout& (0+255),b
  1643                           
  1644                           ;C:\Program Files\Microchip\xc8\v2.20\pic\sources\c99\common\doprnt.c: 1375:     while (
      +                          *cfmt) {
  1645  0030EC  EF8B  F018         	goto	l3610
  1646  0030F0                     l3608:
  1647                           
  1648                           ; BSR set to: 0
  1649                           ;C:\Program Files\Microchip\xc8\v2.20\pic\sources\c99\common\doprnt.c: 1376:         nou
      +                          t += vfpfcnvrt(fp, &cfmt, ap);
  1650  0030F0  C0A2  F053         	movff	vfprintf@fp,vfpfcnvrt@fp
  1651  0030F4  C0A3  F054         	movff	vfprintf@fp+1,vfpfcnvrt@fp+1
  1652  0030F8  0E5D               	movlw	low vfprintf@cfmt
  1653  0030FA  6E55               	movwf	vfpfcnvrt@fmt^0,c
  1654  0030FC  0E00               	movlw	high vfprintf@cfmt
  1655  0030FE  6E56               	movwf	(vfpfcnvrt@fmt+1)^0,c
  1656  003100  C0A6  F057         	movff	vfprintf@ap,vfpfcnvrt@ap
  1657  003104  C0A7  F058         	movff	vfprintf@ap+1,vfpfcnvrt@ap+1
  1658  003108  EC33  F010         	call	_vfpfcnvrt	;wreg free
  1659  00310C  5053               	movf	?_vfpfcnvrt^0,w,c
  1660  00310E  0100               	movlb	0	; () banked
  1661  003110  27CE               	addwf	_nout& (0+255),f,b
  1662  003112  5054               	movf	(?_vfpfcnvrt+1)^0,w,c
  1663  003114  23CF               	addwfc	(_nout+1)& (0+255),f,b
  1664  003116                     l3610:
  1665                           
  1666                           ; BSR set to: 0
  1667                           ;C:\Program Files\Microchip\xc8\v2.20\pic\sources\c99\common\doprnt.c: 1375:     while (
      +                          *cfmt) {
  1668  003116  C05D  FFF6         	movff	vfprintf@cfmt,tblptrl
  1669  00311A  C05E  FFF7         	movff	vfprintf@cfmt+1,tblptrh
  1670  00311E                     	if	0	;tblptru may be non-zero
  1671  00311E                     	endif
  1672  00311E                     	if	0	;tblptru may be non-zero
  1673  00311E                     	endif
  1674  00311E  0008               	tblrd		*
  1675  003120  50F5               	movf	tablat,w,c
  1676  003122  0900               	iorlw	0
  1677  003124  A4D8               	btfss	status,2,c
  1678  003126  EF97  F018         	goto	u4371
  1679  00312A  EF99  F018         	goto	u4370
  1680  00312E                     u4371:
  1681  00312E  EF78  F018         	goto	l3608
  1682  003132                     u4370:
  1683  003132                     
  1684                           ; BSR set to: 0
  1685                           ;C:\Program Files\Microchip\xc8\v2.20\pic\sources\c99\common\doprnt.c: 1378:     return 
      +                          nout;
  1686  003132  C0CE  F0A2         	movff	_nout,?_vfprintf
  1687  003136  C0CF  F0A3         	movff	_nout+1,?_vfprintf+1
  1688  00313A                     
  1689                           ; BSR set to: 0
  1690  00313A  0012               	return		;funcret
  1691  00313C                     __end_of_vfprintf:
  1692                           	callstack 0
  1693                           
  1694 ;; *************** function _vfpfcnvrt *****************
  1695 ;; Defined at:
  1696 ;;		line 670 in file "C:\Program Files\Microchip\xc8\v2.20\pic\sources\c99\common\doprnt.c"
  1697 ;; Parameters:    Size  Location     Type
  1698 ;;  fp              2   82[COMRAM] PTR struct _IO_FILE
  1699 ;;		 -> sprintf@f(6), 
  1700 ;;  fmt             2   84[COMRAM] PTR PTR unsigned char 
  1701 ;;		 -> vfprintf@cfmt(2), 
  1702 ;;  ap              2   86[COMRAM] PTR PTR void 
  1703 ;;		 -> sprintf@ap(2), 
  1704 ;; Auto vars:     Size  Location     Type
  1705 ;;  llu             8    0        unsigned long long 
  1706 ;;  ll              8    0        long long 
  1707 ;;  f               4   58[BANK0 ] long long 
  1708 ;;  ct              3   62[BANK0 ] unsigned char [3]
  1709 ;;  vp              3    0        PTR void 
  1710 ;;  cp              3    0        PTR unsigned char 
  1711 ;;  i               2    0        int 
  1712 ;;  done            2    0        int 
  1713 ;;  c               1   65[BANK0 ] unsigned char 
  1714 ;; Return value:  Size  Location     Type
  1715 ;;                  2   82[COMRAM] int 
  1716 ;; Registers used:
  1717 ;;		wreg, fsr1l, fsr1h, fsr2l, fsr2h, status,2, status,0, tblptrl, tblptrh, tblptru, prodl, prodh, cstack
  1718 ;; Tracked objects:
  1719 ;;		On entry : 0/0
  1720 ;;		On exit  : 0/0
  1721 ;;		Unchanged: 0/0
  1722 ;; Data sizes:     COMRAM   BANK0   BANK1   BANK2   BANK3   BANK4   BANK5   BANK6   BANK7
  1723 ;;      Params:         6       0       0       0       0       0       0       0       0
  1724 ;;      Locals:         0      10       0       0       0       0       0       0       0
  1725 ;;      Temps:          4       0       0       0       0       0       0       0       0
  1726 ;;      Totals:        10      10       0       0       0       0       0       0       0
  1727 ;;Total ram usage:       20 bytes
  1728 ;; Hardware stack levels used:    1
  1729 ;; Hardware stack levels required when called:    5
  1730 ;; This function calls:
  1731 ;;		_efgtoa
  1732 ;;		_fputc
  1733 ;;		_isupper
  1734 ;;		_strncmp
  1735 ;;		_tolower
  1736 ;; This function is called by:
  1737 ;;		_vfprintf
  1738 ;; This function uses a non-reentrant model
  1739 ;;
  1740                           
  1741                           	psect	text9
  1742  002066                     __ptext9:
  1743                           	callstack 0
  1744  002066                     _vfpfcnvrt:
  1745                           	callstack 22
  1746  002066                     
  1747                           ;C:\Program Files\Microchip\xc8\v2.20\pic\sources\c99\common\doprnt.c: 670: static int v
      +                          fpfcnvrt(FILE *fp, char *fmt[], va_list ap);C:\Program Files\Microchip\xc8\v2.20\pic\sou
      +                          rces\c99\common\doprnt.c: 671: {;C:\Program Files\Microchip\xc8\v2.20\pic\sources\c99\co
      +                          mmon\doprnt.c: 672:     char c, *cp, ct[3];;C:\Program Files\Microchip\xc8\v2.20\pic\sou
      +                          rces\c99\common\doprnt.c: 673:     int done, i;;C:\Program Files\Microchip\xc8\v2.20\pic
      +                          \sources\c99\common\doprnt.c: 674:     long long ll;;C:\Program Files\Microchip\xc8\v2.2
      +                          0\pic\sources\c99\common\doprnt.c: 675:     unsigned long long llu;
  1748  002066  C055  FFD9         	movff	vfpfcnvrt@fmt,fsr2l
  1749  00206A  C056  FFDA         	movff	vfpfcnvrt@fmt+1,fsr2h
  1750  00206E  CFDE FFF6          	movff	postinc2,tblptrl
  1751  002072  CFDD FFF7          	movff	postdec2,tblptrh
  1752  002076                     	if	0	;tblptru may be non-zero
  1753  002076                     	endif
  1754  002076                     	if	0	;tblptru may be non-zero
  1755  002076                     	endif
  1756  002076  0008               	tblrd		*
  1757  002078  50F5               	movf	tablat,w,c
  1758  00207A  0A25               	xorlw	37
  1759  00207C  A4D8               	btfss	status,2,c
  1760  00207E  EF43  F010         	goto	u4281
  1761  002082  EF45  F010         	goto	u4280
  1762  002086                     u4281:
  1763  002086  EFBC  F011         	goto	l3576
  1764  00208A                     u4280:
  1765  00208A                     
  1766                           ;C:\Program Files\Microchip\xc8\v2.20\pic\sources\c99\common\doprnt.c: 681:         ++*f
      +                          mt;
  1767  00208A  C055  FFD9         	movff	vfpfcnvrt@fmt,fsr2l
  1768  00208E  C056  FFDA         	movff	vfpfcnvrt@fmt+1,fsr2h
  1769  002092  2ADE               	incf	postinc2,f,c
  1770  002094  0E00               	movlw	0
  1771  002096  22DD               	addwfc	postdec2,f,c
  1772  002098                     
  1773                           ;C:\Program Files\Microchip\xc8\v2.20\pic\sources\c99\common\doprnt.c: 683:         flag
      +                          s = width = 0;
  1774  002098  0E00               	movlw	0
  1775  00209A  0100               	movlb	0	; () banked
  1776  00209C  6FD1               	movwf	(_width+1)& (0+255),b
  1777  00209E  0E00               	movlw	0
  1778  0020A0  6FD0               	movwf	_width& (0+255),b
  1779  0020A2  C0D0  F0D4         	movff	_width,_flags
  1780  0020A6  C0D1  F0D5         	movff	_width+1,_flags+1
  1781  0020AA                     
  1782                           ; BSR set to: 0
  1783                           ;C:\Program Files\Microchip\xc8\v2.20\pic\sources\c99\common\doprnt.c: 684:         prec
      +                           = -1;
  1784  0020AA  69D2               	setf	_prec& (0+255),b
  1785  0020AC  69D3               	setf	(_prec+1)& (0+255),b
  1786  0020AE                     
  1787                           ; BSR set to: 0
  1788                           ;C:\Program Files\Microchip\xc8\v2.20\pic\sources\c99\common\doprnt.c: 757:         ct[0
      +                          ] = tolower((int)(*fmt)[0]);
  1789  0020AE  C055  FFD9         	movff	vfpfcnvrt@fmt,fsr2l
  1790  0020B2  C056  FFDA         	movff	vfpfcnvrt@fmt+1,fsr2h
  1791  0020B6  CFDE FFF6          	movff	postinc2,tblptrl
  1792  0020BA  CFDD FFF7          	movff	postdec2,tblptrh
  1793  0020BE                     	if	0	;tblptru may be non-zero
  1794  0020BE                     	endif
  1795  0020BE                     	if	0	;tblptru may be non-zero
  1796  0020BE                     	endif
  1797  0020BE  0008               	tblrd		*
  1798  0020C0  50F5               	movf	tablat,w,c
  1799  0020C2  6E07               	movwf	tolower@c^0,c
  1800  0020C4  6A08               	clrf	(tolower@c+1)^0,c
  1801  0020C6  EC9E  F018         	call	_tolower	;wreg free
  1802  0020CA  5007               	movf	?_tolower^0,w,c
  1803  0020CC  0100               	movlb	0	; () banked
  1804  0020CE  6F9E               	movwf	vfpfcnvrt@ct& (0+255),b
  1805  0020D0                     
  1806                           ; BSR set to: 0
  1807                           ;C:\Program Files\Microchip\xc8\v2.20\pic\sources\c99\common\doprnt.c: 758:         if (
      +                          ct[0]) {
  1808  0020D0  519E               	movf	vfpfcnvrt@ct& (0+255),w,b
  1809  0020D2  B4D8               	btfsc	status,2,c
  1810  0020D4  EF6E  F010         	goto	u4291
  1811  0020D8  EF70  F010         	goto	u4290
  1812  0020DC                     u4291:
  1813  0020DC  EFAA  F010         	goto	l3532
  1814  0020E0                     u4290:
  1815  0020E0                     
  1816                           ; BSR set to: 0
  1817                           ;C:\Program Files\Microchip\xc8\v2.20\pic\sources\c99\common\doprnt.c: 759:             
      +                          ct[1] = tolower((int)(*fmt)[1]);
  1818  0020E0  C055  FFD9         	movff	vfpfcnvrt@fmt,fsr2l
  1819  0020E4  C056  FFDA         	movff	vfpfcnvrt@fmt+1,fsr2h
  1820  0020E8  CFDE F059          	movff	postinc2,??_vfpfcnvrt
  1821  0020EC  CFDD F05A          	movff	postdec2,??_vfpfcnvrt+1
  1822  0020F0  0E01               	movlw	1
  1823  0020F2  2659               	addwf	??_vfpfcnvrt^0,f,c
  1824  0020F4  0E00               	movlw	0
  1825  0020F6  225A               	addwfc	(??_vfpfcnvrt+1)^0,f,c
  1826  0020F8  C059  FFF6         	movff	??_vfpfcnvrt,tblptrl
  1827  0020FC  C05A  FFF7         	movff	??_vfpfcnvrt+1,tblptrh
  1828  002100                     	if	0	;tblptru may be non-zero
  1829  002100                     	endif
  1830  002100                     	if	0	;tblptru may be non-zero
  1831  002100                     	endif
  1832  002100  0008               	tblrd		*
  1833  002102  50F5               	movf	tablat,w,c
  1834  002104  6E07               	movwf	tolower@c^0,c
  1835  002106  6A08               	clrf	(tolower@c+1)^0,c
  1836  002108  EC9E  F018         	call	_tolower	;wreg free
  1837  00210C  5007               	movf	?_tolower^0,w,c
  1838  00210E  0100               	movlb	0	; () banked
  1839  002110  6F9F               	movwf	(vfpfcnvrt@ct+1)& (0+255),b
  1840  002112                     
  1841                           ; BSR set to: 0
  1842                           ;C:\Program Files\Microchip\xc8\v2.20\pic\sources\c99\common\doprnt.c: 760:             
      +                          if (ct[1]) {
  1843  002112  519F               	movf	(vfpfcnvrt@ct+1)& (0+255),w,b
  1844  002114  B4D8               	btfsc	status,2,c
  1845  002116  EF8F  F010         	goto	u4301
  1846  00211A  EF91  F010         	goto	u4300
  1847  00211E                     u4301:
  1848  00211E  EFAA  F010         	goto	l3532
  1849  002122                     u4300:
  1850  002122                     
  1851                           ; BSR set to: 0
  1852                           ;C:\Program Files\Microchip\xc8\v2.20\pic\sources\c99\common\doprnt.c: 761:             
      +                              ct[2] = tolower((int)(*fmt)[2]);
  1853  002122  C055  FFD9         	movff	vfpfcnvrt@fmt,fsr2l
  1854  002126  C056  FFDA         	movff	vfpfcnvrt@fmt+1,fsr2h
  1855  00212A  CFDE F059          	movff	postinc2,??_vfpfcnvrt
  1856  00212E  CFDD F05A          	movff	postdec2,??_vfpfcnvrt+1
  1857  002132  0E02               	movlw	2
  1858  002134  2659               	addwf	??_vfpfcnvrt^0,f,c
  1859  002136  0E00               	movlw	0
  1860  002138  225A               	addwfc	(??_vfpfcnvrt+1)^0,f,c
  1861  00213A  C059  FFF6         	movff	??_vfpfcnvrt,tblptrl
  1862  00213E  C05A  FFF7         	movff	??_vfpfcnvrt+1,tblptrh
  1863  002142                     	if	0	;tblptru may be non-zero
  1864  002142                     	endif
  1865  002142                     	if	0	;tblptru may be non-zero
  1866  002142                     	endif
  1867  002142  0008               	tblrd		*
  1868  002144  50F5               	movf	tablat,w,c
  1869  002146  6E07               	movwf	tolower@c^0,c
  1870  002148  6A08               	clrf	(tolower@c+1)^0,c
  1871  00214A  EC9E  F018         	call	_tolower	;wreg free
  1872  00214E  5007               	movf	?_tolower^0,w,c
  1873  002150  0100               	movlb	0	; () banked
  1874  002152  6FA0               	movwf	(vfpfcnvrt@ct+2)& (0+255),b
  1875  002154                     l3532:
  1876                           
  1877                           ; BSR set to: 0
  1878                           ;C:\Program Files\Microchip\xc8\v2.20\pic\sources\c99\common\doprnt.c: 920:         if (
      +                          ct[0] == 'f') {
  1879  002154  0E66               	movlw	102
  1880  002156  199E               	xorwf	vfpfcnvrt@ct& (0+255),w,b
  1881  002158  A4D8               	btfss	status,2,c
  1882  00215A  EFB1  F010         	goto	u4311
  1883  00215E  EFB3  F010         	goto	u4310
  1884  002162                     u4311:
  1885  002162  EFF3  F010         	goto	l3544
  1886  002166                     u4310:
  1887  002166                     
  1888                           ; BSR set to: 0
  1889                           ;C:\Program Files\Microchip\xc8\v2.20\pic\sources\c99\common\doprnt.c: 922:             
      +                          c = (*fmt)[0];
  1890  002166  C055  FFD9         	movff	vfpfcnvrt@fmt,fsr2l
  1891  00216A  C056  FFDA         	movff	vfpfcnvrt@fmt+1,fsr2h
  1892  00216E  CFDE FFF6          	movff	postinc2,tblptrl
  1893  002172  CFDD FFF7          	movff	postdec2,tblptrh
  1894  002176                     	if	0	;tblptru may be non-zero
  1895  002176                     	endif
  1896  002176                     	if	0	;tblptru may be non-zero
  1897  002176                     	endif
  1898  002176  0008               	tblrd		*
  1899  002178  CFF5 F0A1          	movff	tablat,vfpfcnvrt@c
  1900  00217C                     
  1901                           ; BSR set to: 0
  1902                           ;C:\Program Files\Microchip\xc8\v2.20\pic\sources\c99\common\doprnt.c: 923:             
      +                          ++*fmt;
  1903  00217C  C055  FFD9         	movff	vfpfcnvrt@fmt,fsr2l
  1904  002180  C056  FFDA         	movff	vfpfcnvrt@fmt+1,fsr2h
  1905  002184  2ADE               	incf	postinc2,f,c
  1906  002186  0E00               	movlw	0
  1907  002188  22DD               	addwfc	postdec2,f,c
  1908  00218A                     
  1909                           ; BSR set to: 0
  1910                           ;C:\Program Files\Microchip\xc8\v2.20\pic\sources\c99\common\doprnt.c: 924:             
      +                          f = (long double)(*(double *)__va_arg(*(double **)ap, (double)0));
  1911  00218A  C057  FFD9         	movff	vfpfcnvrt@ap,fsr2l
  1912  00218E  C058  FFDA         	movff	vfpfcnvrt@ap+1,fsr2h
  1913  002192  CFDF F059          	movff	indf2,??_vfpfcnvrt
  1914  002196  0E04               	movlw	4
  1915  002198  26DE               	addwf	postinc2,f,c
  1916  00219A  CFDF F05A          	movff	indf2,??_vfpfcnvrt+1
  1917  00219E  0E00               	movlw	0
  1918  0021A0  22DD               	addwfc	postdec2,f,c
  1919  0021A2  C059  FFD9         	movff	??_vfpfcnvrt,fsr2l
  1920  0021A6  C05A  FFDA         	movff	??_vfpfcnvrt+1,fsr2h
  1921  0021AA  CFDE F09A          	movff	postinc2,vfpfcnvrt@f
  1922  0021AE  CFDE F09B          	movff	postinc2,vfpfcnvrt@f+1
  1923  0021B2  CFDE F09C          	movff	postinc2,vfpfcnvrt@f+2
  1924  0021B6  CFDE F09D          	movff	postinc2,vfpfcnvrt@f+3
  1925  0021BA                     l3540:
  1926                           
  1927                           ; BSR set to: 0
  1928                           ;C:\Program Files\Microchip\xc8\v2.20\pic\sources\c99\common\doprnt.c: 926:             
      +                          return efgtoa(fp, f, c);
  1929  0021BA  C053  F047         	movff	vfpfcnvrt@fp,efgtoa@fp
  1930  0021BE  C054  F048         	movff	vfpfcnvrt@fp+1,efgtoa@fp+1
  1931  0021C2  C09A  F049         	movff	vfpfcnvrt@f,efgtoa@f
  1932  0021C6  C09B  F04A         	movff	vfpfcnvrt@f+1,efgtoa@f+1
  1933  0021CA  C09C  F04B         	movff	vfpfcnvrt@f+2,efgtoa@f+2
  1934  0021CE  C09D  F04C         	movff	vfpfcnvrt@f+3,efgtoa@f+3
  1935  0021D2  C0A1  F04D         	movff	vfpfcnvrt@c,efgtoa@c
  1936  0021D6  EC19  F004         	call	_efgtoa	;wreg free
  1937  0021DA  C047  F053         	movff	?_efgtoa,?_vfpfcnvrt
  1938  0021DE  C048  F054         	movff	?_efgtoa+1,?_vfpfcnvrt+1
  1939  0021E2  EFD7  F011         	goto	l933
  1940  0021E6                     l3544:
  1941                           
  1942                           ; BSR set to: 0
  1943                           ;C:\Program Files\Microchip\xc8\v2.20\pic\sources\c99\common\doprnt.c: 928:         if (
      +                          !strncmp(ct, "lf", ((sizeof("lf")/sizeof("lf"[0]))-1))) {
  1944  0021E6  0E9E               	movlw	low vfpfcnvrt@ct
  1945  0021E8  6E01               	movwf	strncmp@_l^0,c
  1946  0021EA  0E00               	movlw	high vfpfcnvrt@ct
  1947  0021EC  6E02               	movwf	(strncmp@_l+1)^0,c
  1948  0021EE  0E27               	movlw	low STR_14
  1949  0021F0  6E03               	movwf	strncmp@_r^0,c
  1950  0021F2  0E08               	movlw	high STR_14
  1951  0021F4  6E04               	movwf	(strncmp@_r+1)^0,c
  1952  0021F6  0E00               	movlw	0
  1953  0021F8  6E06               	movwf	(strncmp@n+1)^0,c
  1954  0021FA  0E02               	movlw	2
  1955  0021FC  6E05               	movwf	strncmp@n^0,c
  1956  0021FE  ECDB  F015         	call	_strncmp	;wreg free
  1957  002202  5001               	movf	?_strncmp^0,w,c
  1958  002204  1002               	iorwf	(?_strncmp+1)^0,w,c
  1959  002206  A4D8               	btfss	status,2,c
  1960  002208  EF08  F011         	goto	u4321
  1961  00220C  EF0A  F011         	goto	u4320
  1962  002210                     u4321:
  1963  002210  EF86  F011         	goto	l3560
  1964  002214                     u4320:
  1965  002214                     
  1966                           ;C:\Program Files\Microchip\xc8\v2.20\pic\sources\c99\common\doprnt.c: 931:             
      +                          if ((0 ? isupper((int)(*fmt)[0]) : ((unsigned)((int)(*fmt)[0])-'A') < 26)) {
  1967  002214  C055  FFD9         	movff	vfpfcnvrt@fmt,fsr2l
  1968  002218  C056  FFDA         	movff	vfpfcnvrt@fmt+1,fsr2h
  1969  00221C  CFDE F059          	movff	postinc2,??_vfpfcnvrt
  1970  002220  CFDD F05A          	movff	postdec2,??_vfpfcnvrt+1
  1971  002224  0E01               	movlw	1
  1972  002226  2659               	addwf	??_vfpfcnvrt^0,f,c
  1973  002228  0E00               	movlw	0
  1974  00222A  225A               	addwfc	(??_vfpfcnvrt+1)^0,f,c
  1975  00222C  C059  FFF6         	movff	??_vfpfcnvrt,tblptrl
  1976  002230  C05A  FFF7         	movff	??_vfpfcnvrt+1,tblptrh
  1977  002234                     	if	0	;tblptru may be non-zero
  1978  002234                     	endif
  1979  002234                     	if	0	;tblptru may be non-zero
  1980  002234                     	endif
  1981  002234  0008               	tblrd		*
  1982  002236  CFF5 F0A1          	movff	tablat,vfpfcnvrt@c
  1983  00223A  0EBF               	movlw	191
  1984  00223C  6E59               	movwf	??_vfpfcnvrt^0,c
  1985  00223E  0EFF               	movlw	255
  1986  002240  6E5A               	movwf	(??_vfpfcnvrt+1)^0,c
  1987  002242  C055  FFD9         	movff	vfpfcnvrt@fmt,fsr2l
  1988  002246  C056  FFDA         	movff	vfpfcnvrt@fmt+1,fsr2h
  1989  00224A  CFDE FFF6          	movff	postinc2,tblptrl
  1990  00224E  CFDD FFF7          	movff	postdec2,tblptrh
  1991  002252                     	if	0	;tblptru may be non-zero
  1992  002252                     	endif
  1993  002252                     	if	0	;tblptru may be non-zero
  1994  002252                     	endif
  1995  002252  0008               	tblrd		*
  1996  002254  50F5               	movf	tablat,w,c
  1997  002256  6E5B               	movwf	(??_vfpfcnvrt+2)^0,c
  1998  002258  6A5C               	clrf	(??_vfpfcnvrt+3)^0,c
  1999  00225A  5059               	movf	??_vfpfcnvrt^0,w,c
  2000  00225C  265B               	addwf	(??_vfpfcnvrt+2)^0,f,c
  2001  00225E  505A               	movf	(??_vfpfcnvrt+1)^0,w,c
  2002  002260  225C               	addwfc	(??_vfpfcnvrt+3)^0,f,c
  2003  002262  505C               	movf	(??_vfpfcnvrt+3)^0,w,c
  2004  002264  E10A               	bnz	u4330
  2005  002266  0E1A               	movlw	26
  2006  002268  5C5B               	subwf	(??_vfpfcnvrt+2)^0,w,c
  2007  00226A  A0D8               	btfss	status,0,c
  2008  00226C  EF3A  F011         	goto	u4331
  2009  002270  EF3D  F011         	goto	u4330
  2010  002274                     u4331:
  2011  002274  0E01               	movlw	1
  2012  002276  EF3E  F011         	goto	u4340
  2013  00227A                     u4330:
  2014  00227A  0E00               	movlw	0
  2015  00227C                     u4340:
  2016  00227C  0100               	movlb	0	; () banked
  2017  00227E  6F98               	movwf	_vfpfcnvrt$1003& (0+255),b
  2018  002280  6B99               	clrf	(_vfpfcnvrt$1003+1)& (0+255),b
  2019  002282                     
  2020                           ; BSR set to: 0
  2021  002282  5198               	movf	_vfpfcnvrt$1003& (0+255),w,b
  2022  002284  1199               	iorwf	(_vfpfcnvrt$1003+1)& (0+255),w,b
  2023  002286  B4D8               	btfsc	status,2,c
  2024  002288  EF48  F011         	goto	u4351
  2025  00228C  EF4A  F011         	goto	u4350
  2026  002290                     u4351:
  2027  002290  EF64  F011         	goto	l3554
  2028  002294                     u4350:
  2029  002294                     
  2030                           ; BSR set to: 0
  2031                           ;C:\Program Files\Microchip\xc8\v2.20\pic\sources\c99\common\doprnt.c: 932:             
      +                              f = (*(long double *)__va_arg(*(long double **)ap, (long double)0));
  2032  002294  C057  FFD9         	movff	vfpfcnvrt@ap,fsr2l
  2033  002298  C058  FFDA         	movff	vfpfcnvrt@ap+1,fsr2h
  2034  00229C  CFDF F059          	movff	indf2,??_vfpfcnvrt
  2035  0022A0  0E04               	movlw	4
  2036  0022A2  26DE               	addwf	postinc2,f,c
  2037  0022A4  CFDF F05A          	movff	indf2,??_vfpfcnvrt+1
  2038  0022A8  0E00               	movlw	0
  2039  0022AA  22DD               	addwfc	postdec2,f,c
  2040  0022AC  C059  FFD9         	movff	??_vfpfcnvrt,fsr2l
  2041  0022B0  C05A  FFDA         	movff	??_vfpfcnvrt+1,fsr2h
  2042  0022B4  CFDE F09A          	movff	postinc2,vfpfcnvrt@f
  2043  0022B8  CFDE F09B          	movff	postinc2,vfpfcnvrt@f+1
  2044  0022BC  CFDE F09C          	movff	postinc2,vfpfcnvrt@f+2
  2045  0022C0  CFDE F09D          	movff	postinc2,vfpfcnvrt@f+3
  2046                           
  2047                           ;C:\Program Files\Microchip\xc8\v2.20\pic\sources\c99\common\doprnt.c: 933:             
      +                          } else {
  2048  0022C4  EF7C  F011         	goto	l940
  2049  0022C8                     l3554:
  2050                           
  2051                           ; BSR set to: 0
  2052                           ;C:\Program Files\Microchip\xc8\v2.20\pic\sources\c99\common\doprnt.c: 934:             
      +                              f = (long double)(*(double *)__va_arg(*(double **)ap, (double)0));
  2053  0022C8  C057  FFD9         	movff	vfpfcnvrt@ap,fsr2l
  2054  0022CC  C058  FFDA         	movff	vfpfcnvrt@ap+1,fsr2h
  2055  0022D0  CFDF F059          	movff	indf2,??_vfpfcnvrt
  2056  0022D4  0E04               	movlw	4
  2057  0022D6  26DE               	addwf	postinc2,f,c
  2058  0022D8  CFDF F05A          	movff	indf2,??_vfpfcnvrt+1
  2059  0022DC  0E00               	movlw	0
  2060  0022DE  22DD               	addwfc	postdec2,f,c
  2061  0022E0  C059  FFD9         	movff	??_vfpfcnvrt,fsr2l
  2062  0022E4  C05A  FFDA         	movff	??_vfpfcnvrt+1,fsr2h
  2063  0022E8  CFDE F09A          	movff	postinc2,vfpfcnvrt@f
  2064  0022EC  CFDE F09B          	movff	postinc2,vfpfcnvrt@f+1
  2065  0022F0  CFDE F09C          	movff	postinc2,vfpfcnvrt@f+2
  2066  0022F4  CFDE F09D          	movff	postinc2,vfpfcnvrt@f+3
  2067  0022F8                     l940:
  2068                           
  2069                           ; BSR set to: 0
  2070                           ;C:\Program Files\Microchip\xc8\v2.20\pic\sources\c99\common\doprnt.c: 936:             
      +                          *fmt += ((sizeof("lf")/sizeof("lf"[0]))-1);
  2071  0022F8  0E02               	movlw	2
  2072  0022FA  C055  FFD9         	movff	vfpfcnvrt@fmt,fsr2l
  2073  0022FE  C056  FFDA         	movff	vfpfcnvrt@fmt+1,fsr2h
  2074  002302  26DE               	addwf	postinc2,f,c
  2075  002304  0E00               	movlw	0
  2076  002306  22DD               	addwfc	postdec2,f,c
  2077  002308  EFDD  F010         	goto	l3540
  2078  00230C                     l3560:
  2079                           
  2080                           ;C:\Program Files\Microchip\xc8\v2.20\pic\sources\c99\common\doprnt.c: 1350:         if 
      +                          ((*fmt)[0] == '%') {
  2081  00230C  C055  FFD9         	movff	vfpfcnvrt@fmt,fsr2l
  2082  002310  C056  FFDA         	movff	vfpfcnvrt@fmt+1,fsr2h
  2083  002314  CFDE FFF6          	movff	postinc2,tblptrl
  2084  002318  CFDD FFF7          	movff	postdec2,tblptrh
  2085  00231C                     	if	0	;tblptru may be non-zero
  2086  00231C                     	endif
  2087  00231C                     	if	0	;tblptru may be non-zero
  2088  00231C                     	endif
  2089  00231C  0008               	tblrd		*
  2090  00231E  50F5               	movf	tablat,w,c
  2091  002320  0A25               	xorlw	37
  2092  002322  A4D8               	btfss	status,2,c
  2093  002324  EF96  F011         	goto	u4361
  2094  002328  EF98  F011         	goto	u4360
  2095  00232C                     u4361:
  2096  00232C  EFAF  F011         	goto	l3570
  2097  002330                     u4360:
  2098  002330                     
  2099                           ;C:\Program Files\Microchip\xc8\v2.20\pic\sources\c99\common\doprnt.c: 1351:            
      +                           ++*fmt;
  2100  002330  C055  FFD9         	movff	vfpfcnvrt@fmt,fsr2l
  2101  002334  C056  FFDA         	movff	vfpfcnvrt@fmt+1,fsr2h
  2102  002338  2ADE               	incf	postinc2,f,c
  2103  00233A  0E00               	movlw	0
  2104  00233C  22DD               	addwfc	postdec2,f,c
  2105  00233E                     
  2106                           ;C:\Program Files\Microchip\xc8\v2.20\pic\sources\c99\common\doprnt.c: 1352:            
      +                           fputc((int)'%', fp);
  2107  00233E  0E00               	movlw	0
  2108  002340  6E02               	movwf	(fputc@c+1)^0,c
  2109  002342  0E25               	movlw	37
  2110  002344  6E01               	movwf	fputc@c^0,c
  2111  002346  C053  F003         	movff	vfpfcnvrt@fp,fputc@fp
  2112  00234A  C054  F004         	movff	vfpfcnvrt@fp+1,fputc@fp+1
  2113  00234E  EC46  F016         	call	_fputc	;wreg free
  2114  002352                     l3566:
  2115                           
  2116                           ;C:\Program Files\Microchip\xc8\v2.20\pic\sources\c99\common\doprnt.c: 1353:            
      +                           return 1;
  2117  002352  0E00               	movlw	0
  2118  002354  6E54               	movwf	(?_vfpfcnvrt+1)^0,c
  2119  002356  0E01               	movlw	1
  2120  002358  6E53               	movwf	?_vfpfcnvrt^0,c
  2121  00235A  EFD7  F011         	goto	l933
  2122  00235E                     l3570:
  2123                           
  2124                           ;C:\Program Files\Microchip\xc8\v2.20\pic\sources\c99\common\doprnt.c: 1357:         ++*
      +                          fmt;
  2125  00235E  C055  FFD9         	movff	vfpfcnvrt@fmt,fsr2l
  2126  002362  C056  FFDA         	movff	vfpfcnvrt@fmt+1,fsr2h
  2127  002366  2ADE               	incf	postinc2,f,c
  2128  002368  0E00               	movlw	0
  2129  00236A  22DD               	addwfc	postdec2,f,c
  2130  00236C                     
  2131                           ;C:\Program Files\Microchip\xc8\v2.20\pic\sources\c99\common\doprnt.c: 1358:         ret
      +                          urn 0;
  2132  00236C  0E00               	movlw	0
  2133  00236E  6E54               	movwf	(?_vfpfcnvrt+1)^0,c
  2134  002370  0E00               	movlw	0
  2135  002372  6E53               	movwf	?_vfpfcnvrt^0,c
  2136  002374  EFD7  F011         	goto	l933
  2137  002378                     l3576:
  2138                           
  2139                           ;C:\Program Files\Microchip\xc8\v2.20\pic\sources\c99\common\doprnt.c: 1362:     fputc((
      +                          int)(*fmt)[0], fp);
  2140  002378  C055  FFD9         	movff	vfpfcnvrt@fmt,fsr2l
  2141  00237C  C056  FFDA         	movff	vfpfcnvrt@fmt+1,fsr2h
  2142  002380  CFDE FFF6          	movff	postinc2,tblptrl
  2143  002384  CFDD FFF7          	movff	postdec2,tblptrh
  2144  002388                     	if	0	;tblptru may be non-zero
  2145  002388                     	endif
  2146  002388                     	if	0	;tblptru may be non-zero
  2147  002388                     	endif
  2148  002388  0008               	tblrd		*
  2149  00238A  50F5               	movf	tablat,w,c
  2150  00238C  6E01               	movwf	fputc@c^0,c
  2151  00238E  6A02               	clrf	(fputc@c+1)^0,c
  2152  002390  C053  F003         	movff	vfpfcnvrt@fp,fputc@fp
  2153  002394  C054  F004         	movff	vfpfcnvrt@fp+1,fputc@fp+1
  2154  002398  EC46  F016         	call	_fputc	;wreg free
  2155  00239C                     
  2156                           ;C:\Program Files\Microchip\xc8\v2.20\pic\sources\c99\common\doprnt.c: 1363:     ++*fmt;
  2157  00239C  C055  FFD9         	movff	vfpfcnvrt@fmt,fsr2l
  2158  0023A0  C056  FFDA         	movff	vfpfcnvrt@fmt+1,fsr2h
  2159  0023A4  2ADE               	incf	postinc2,f,c
  2160  0023A6  0E00               	movlw	0
  2161  0023A8  22DD               	addwfc	postdec2,f,c
  2162  0023AA  EFA9  F011         	goto	l3566
  2163  0023AE                     l933:
  2164  0023AE  0012               	return		;funcret
  2165  0023B0                     __end_of_vfpfcnvrt:
  2166                           	callstack 0
  2167                           
  2168 ;; *************** function _strncmp *****************
  2169 ;; Defined at:
  2170 ;;		line 3 in file "C:\Program Files\Microchip\xc8\v2.20\pic\sources\c99\common\strncmp.c"
  2171 ;; Parameters:    Size  Location     Type
  2172 ;;  _l              2    0[COMRAM] PTR const unsigned char 
  2173 ;;		 -> vfpfcnvrt@ct(3), 
  2174 ;;  _r              2    2[COMRAM] PTR const unsigned char 
  2175 ;;		 -> STR_16(3), 
  2176 ;;  n               2    4[COMRAM] unsigned int 
  2177 ;; Auto vars:     Size  Location     Type
  2178 ;;  r               2    9[COMRAM] PTR const unsigned char 
  2179 ;;		 -> STR_16(3), 
  2180 ;;  l               2    7[COMRAM] PTR const unsigned char 
  2181 ;;		 -> vfpfcnvrt@ct(3), 
  2182 ;; Return value:  Size  Location     Type
  2183 ;;                  2    0[COMRAM] int 
  2184 ;; Registers used:
  2185 ;;		wreg, fsr2l, fsr2h, status,2, status,0, tblptrl, tblptrh, tblptru
  2186 ;; Tracked objects:
  2187 ;;		On entry : 0/0
  2188 ;;		On exit  : 0/0
  2189 ;;		Unchanged: 0/0
  2190 ;; Data sizes:     COMRAM   BANK0   BANK1   BANK2   BANK3   BANK4   BANK5   BANK6   BANK7
  2191 ;;      Params:         6       0       0       0       0       0       0       0       0
  2192 ;;      Locals:         4       0       0       0       0       0       0       0       0
  2193 ;;      Temps:          1       0       0       0       0       0       0       0       0
  2194 ;;      Totals:        11       0       0       0       0       0       0       0       0
  2195 ;;Total ram usage:       11 bytes
  2196 ;; Hardware stack levels used:    1
  2197 ;; This function calls:
  2198 ;;		Nothing
  2199 ;; This function is called by:
  2200 ;;		_vfpfcnvrt
  2201 ;; This function uses a non-reentrant model
  2202 ;;
  2203                           
  2204                           	psect	text10
  2205  002BB6                     __ptext10:
  2206                           	callstack 0
  2207  002BB6                     _strncmp:
  2208                           	callstack 26
  2209  002BB6  C001  F008         	movff	strncmp@_l,strncmp@l
  2210  002BBA  C002  F009         	movff	strncmp@_l+1,strncmp@l+1
  2211  002BBE  C003  F00A         	movff	strncmp@_r,strncmp@r
  2212  002BC2  C004  F00B         	movff	strncmp@_r+1,strncmp@r+1
  2213  002BC6  0605               	decf	strncmp@n^0,f,c
  2214  002BC8  A0D8               	btfss	status,0,c
  2215  002BCA  0606               	decf	(strncmp@n+1)^0,f,c
  2216  002BCC  2805               	incf	strncmp@n^0,w,c
  2217  002BCE  E106               	bnz	u4231
  2218  002BD0  2806               	incf	(strncmp@n+1)^0,w,c
  2219  002BD2  A4D8               	btfss	status,2,c
  2220  002BD4  EFEE  F015         	goto	u4231
  2221  002BD8  EFF0  F015         	goto	u4230
  2222  002BDC                     u4231:
  2223  002BDC  EFFD  F015         	goto	l3500
  2224  002BE0                     u4230:
  2225  002BE0  0E00               	movlw	0
  2226  002BE2  6E02               	movwf	(?_strncmp+1)^0,c
  2227  002BE4  0E00               	movlw	0
  2228  002BE6  6E01               	movwf	?_strncmp^0,c
  2229  002BE8  EF45  F016         	goto	l1016
  2230  002BEC                     l3498:
  2231  002BEC  4A08               	infsnz	strncmp@l^0,f,c
  2232  002BEE  2A09               	incf	(strncmp@l+1)^0,f,c
  2233  002BF0  4A0A               	infsnz	strncmp@r^0,f,c
  2234  002BF2  2A0B               	incf	(strncmp@r+1)^0,f,c
  2235  002BF4  0605               	decf	strncmp@n^0,f,c
  2236  002BF6  A0D8               	btfss	status,0,c
  2237  002BF8  0606               	decf	(strncmp@n+1)^0,f,c
  2238  002BFA                     l3500:
  2239  002BFA  C008  FFD9         	movff	strncmp@l,fsr2l
  2240  002BFE  C009  FFDA         	movff	strncmp@l+1,fsr2h
  2241  002C02  50DF               	movf	indf2,w,c
  2242  002C04  B4D8               	btfsc	status,2,c
  2243  002C06  EF07  F016         	goto	u4241
  2244  002C0A  EF09  F016         	goto	u4240
  2245  002C0E                     u4241:
  2246  002C0E  EF34  F016         	goto	l3508
  2247  002C12                     u4240:
  2248  002C12  C00A  FFF6         	movff	strncmp@r,tblptrl
  2249  002C16  C00B  FFF7         	movff	strncmp@r+1,tblptrh
  2250  002C1A                     	if	0	;tblptru may be non-zero
  2251  002C1A                     	endif
  2252  002C1A                     	if	0	;tblptru may be non-zero
  2253  002C1A                     	endif
  2254  002C1A  0008               	tblrd		*
  2255  002C1C  50F5               	movf	tablat,w,c
  2256  002C1E  0900               	iorlw	0
  2257  002C20  B4D8               	btfsc	status,2,c
  2258  002C22  EF15  F016         	goto	u4251
  2259  002C26  EF17  F016         	goto	u4250
  2260  002C2A                     u4251:
  2261  002C2A  EF34  F016         	goto	l3508
  2262  002C2E                     u4250:
  2263  002C2E  5005               	movf	strncmp@n^0,w,c
  2264  002C30  1006               	iorwf	(strncmp@n+1)^0,w,c
  2265  002C32  B4D8               	btfsc	status,2,c
  2266  002C34  EF1E  F016         	goto	u4261
  2267  002C38  EF20  F016         	goto	u4260
  2268  002C3C                     u4261:
  2269  002C3C  EF34  F016         	goto	l3508
  2270  002C40                     u4260:
  2271  002C40  C008  FFD9         	movff	strncmp@l,fsr2l
  2272  002C44  C009  FFDA         	movff	strncmp@l+1,fsr2h
  2273  002C48  50DF               	movf	indf2,w,c
  2274  002C4A  6E07               	movwf	??_strncmp^0,c
  2275  002C4C  C00A  FFF6         	movff	strncmp@r,tblptrl
  2276  002C50  C00B  FFF7         	movff	strncmp@r+1,tblptrh
  2277  002C54                     	if	0	;tblptru may be non-zero
  2278  002C54                     	endif
  2279  002C54                     	if	0	;tblptru may be non-zero
  2280  002C54                     	endif
  2281  002C54  0008               	tblrd		*
  2282  002C56  50F5               	movf	tablat,w,c
  2283  002C58  1807               	xorwf	??_strncmp^0,w,c
  2284  002C5A  B4D8               	btfsc	status,2,c
  2285  002C5C  EF32  F016         	goto	u4271
  2286  002C60  EF34  F016         	goto	u4270
  2287  002C64                     u4271:
  2288  002C64  EFF6  F015         	goto	l3498
  2289  002C68                     u4270:
  2290  002C68                     l3508:
  2291  002C68  C008  FFD9         	movff	strncmp@l,fsr2l
  2292  002C6C  C009  FFDA         	movff	strncmp@l+1,fsr2h
  2293  002C70  50DF               	movf	indf2,w,c
  2294  002C72  6E07               	movwf	??_strncmp^0,c
  2295  002C74  C00A  FFF6         	movff	strncmp@r,tblptrl
  2296  002C78  C00B  FFF7         	movff	strncmp@r+1,tblptrh
  2297  002C7C                     	if	0	;tblptru may be non-zero
  2298  002C7C                     	endif
  2299  002C7C                     	if	0	;tblptru may be non-zero
  2300  002C7C                     	endif
  2301  002C7C  0008               	tblrd		*
  2302  002C7E  50F5               	movf	tablat,w,c
  2303  002C80  5C07               	subwf	??_strncmp^0,w,c
  2304  002C82  6E01               	movwf	?_strncmp^0,c
  2305  002C84  6A02               	clrf	(?_strncmp+1)^0,c
  2306  002C86  A0D8               	btfss	status,0,c
  2307  002C88  0602               	decf	(?_strncmp+1)^0,f,c
  2308  002C8A                     l1016:
  2309  002C8A  0012               	return		;funcret
  2310  002C8C                     __end_of_strncmp:
  2311                           	callstack 0
  2312                           
  2313 ;; *************** function _efgtoa *****************
  2314 ;; Defined at:
  2315 ;;		line 319 in file "C:\Program Files\Microchip\xc8\v2.20\pic\sources\c99\common\doprnt.c"
  2316 ;; Parameters:    Size  Location     Type
  2317 ;;  fp              2   70[COMRAM] PTR struct _IO_FILE
  2318 ;;		 -> sprintf@f(6), 
  2319 ;;  f               4   72[COMRAM] PTR struct _IO_FILE
  2320 ;;  c               1   76[COMRAM] unsigned char 
  2321 ;; Auto vars:     Size  Location     Type
  2322 ;;  u               4   52[BANK0 ] unsigned char 
  2323 ;;  g               4   44[BANK0 ] unsigned char 
  2324 ;;  l               4   38[BANK0 ] unsigned char 
  2325 ;;  h               4   34[BANK0 ] unsigned char 
  2326 ;;  ou              4    0[BANK0 ] unsigned char 
  2327 ;;  n               2   50[BANK0 ] int 
  2328 ;;  e               2   48[BANK0 ] int 
  2329 ;;  i               2   42[BANK0 ] int 
  2330 ;;  w               2   31[BANK0 ] int 
  2331 ;;  p               2   28[BANK0 ] int 
  2332 ;;  sign            2   26[BANK0 ] int 
  2333 ;;  d               2   24[BANK0 ] int 
  2334 ;;  ne              2   22[BANK0 ] int 
  2335 ;;  m               2   20[BANK0 ] int 
  2336 ;;  pp              2   18[BANK0 ] int 
  2337 ;;  t               2   16[BANK0 ] int 
  2338 ;;  mode            1   33[BANK0 ] unsigned char 
  2339 ;;  nmode           1   30[BANK0 ] unsigned char 
  2340 ;; Return value:  Size  Location     Type
  2341 ;;                  2   70[COMRAM] int 
  2342 ;; Registers used:
  2343 ;;		wreg, fsr1l, fsr1h, fsr2l, fsr2h, status,2, status,0, tblptrl, tblptrh, tblptru, prodl, prodh, cstack
  2344 ;; Tracked objects:
  2345 ;;		On entry : 0/0
  2346 ;;		On exit  : 0/0
  2347 ;;		Unchanged: 0/0
  2348 ;; Data sizes:     COMRAM   BANK0   BANK1   BANK2   BANK3   BANK4   BANK5   BANK6   BANK7
  2349 ;;      Params:         7       0       0       0       0       0       0       0       0
  2350 ;;      Locals:         0      56       0       0       0       0       0       0       0
  2351 ;;      Temps:          5       0       0       0       0       0       0       0       0
  2352 ;;      Totals:        12      56       0       0       0       0       0       0       0
  2353 ;;Total ram usage:       68 bytes
  2354 ;; Hardware stack levels used:    1
  2355 ;; Hardware stack levels required when called:    4
  2356 ;; This function calls:
  2357 ;;		___awdiv
  2358 ;;		___awmod
  2359 ;;		___fladd
  2360 ;;		___fldiv
  2361 ;;		___fleq
  2362 ;;		___flge
  2363 ;;		___flmul
  2364 ;;		___flneg
  2365 ;;		___flsub
  2366 ;;		___fltol
  2367 ;;		___fpclassifyf
  2368 ;;		_floorf
  2369 ;;		_isupper
  2370 ;;		_pad
  2371 ;;		_strcpy
  2372 ;;		_tolower
  2373 ;; This function is called by:
  2374 ;;		_vfpfcnvrt
  2375 ;; This function uses a non-reentrant model
  2376 ;;
  2377                           
  2378                           	psect	text11
  2379  000832                     __ptext11:
  2380                           	callstack 0
  2381  000832                     _efgtoa:
  2382                           	callstack 22
  2383  000832                     
  2384                           ;C:\Program Files\Microchip\xc8\v2.20\pic\sources\c99\common\doprnt.c: 319: static int e
      +                          fgtoa(FILE *fp, long double f, char c);C:\Program Files\Microchip\xc8\v2.20\pic\sources\
      +                          c99\common\doprnt.c: 320: {;C:\Program Files\Microchip\xc8\v2.20\pic\sources\c99\common\
      +                          doprnt.c: 321:     char mode, nmode;;C:\Program Files\Microchip\xc8\v2.20\pic\sources\c9
      +                          9\common\doprnt.c: 322:     int d, e, i, m, n, ne, p, pp, sign, t, w;;C:\Program Files\M
      +                          icrochip\xc8\v2.20\pic\sources\c99\common\doprnt.c: 323:     long double g, h, l, ou, u;
  2385  000832  0E00               	movlw	0
  2386  000834  0100               	movlb	0	; () banked
  2387  000836  6F7B               	movwf	(efgtoa@sign+1)& (0+255),b
  2388  000838  0E00               	movlw	0
  2389  00083A  6F7A               	movwf	efgtoa@sign& (0+255),b
  2390  00083C                     
  2391                           ; BSR set to: 0
  2392                           ;C:\Program Files\Microchip\xc8\v2.20\pic\sources\c99\common\doprnt.c: 327:     g = f;
  2393  00083C  C049  F08C         	movff	efgtoa@f,efgtoa@g
  2394  000840  C04A  F08D         	movff	efgtoa@f+1,efgtoa@g+1
  2395  000844  C04B  F08E         	movff	efgtoa@f+2,efgtoa@g+2
  2396  000848  C04C  F08F         	movff	efgtoa@f+3,efgtoa@g+3
  2397  00084C                     
  2398                           ; BSR set to: 0
  2399                           ;C:\Program Files\Microchip\xc8\v2.20\pic\sources\c99\common\doprnt.c: 328:     if (g < 
      +                          0.0) {
  2400  00084C  BF8F               	btfsc	(efgtoa@g+3)& (0+255),7,b
  2401  00084E  EF2D  F004         	goto	u3710
  2402  000852  EF2B  F004         	goto	u3711
  2403  000856                     u3711:
  2404  000856  EF43  F004         	goto	l3204
  2405  00085A                     u3710:
  2406  00085A                     
  2407                           ; BSR set to: 0
  2408                           ;C:\Program Files\Microchip\xc8\v2.20\pic\sources\c99\common\doprnt.c: 329:         sign
      +                           = 1;
  2409  00085A  0E00               	movlw	0
  2410  00085C  6F7B               	movwf	(efgtoa@sign+1)& (0+255),b
  2411  00085E  0E01               	movlw	1
  2412  000860  6F7A               	movwf	efgtoa@sign& (0+255),b
  2413  000862                     
  2414                           ; BSR set to: 0
  2415                           ;C:\Program Files\Microchip\xc8\v2.20\pic\sources\c99\common\doprnt.c: 330:         g = 
      +                          -g;
  2416  000862  C08C  F001         	movff	efgtoa@g,___flneg@f1
  2417  000866  C08D  F002         	movff	efgtoa@g+1,___flneg@f1+1
  2418  00086A  C08E  F003         	movff	efgtoa@g+2,___flneg@f1+2
  2419  00086E  C08F  F004         	movff	efgtoa@g+3,___flneg@f1+3
  2420  000872  EC27  F01A         	call	___flneg	;wreg free
  2421  000876  C001  F08C         	movff	?___flneg,efgtoa@g
  2422  00087A  C002  F08D         	movff	?___flneg+1,efgtoa@g+1
  2423  00087E  C003  F08E         	movff	?___flneg+2,efgtoa@g+2
  2424  000882  C004  F08F         	movff	?___flneg+3,efgtoa@g+3
  2425  000886                     l3204:
  2426                           
  2427                           ;C:\Program Files\Microchip\xc8\v2.20\pic\sources\c99\common\doprnt.c: 334:     n = 0;
  2428  000886  0E00               	movlw	0
  2429  000888  0100               	movlb	0	; () banked
  2430  00088A  6F93               	movwf	(efgtoa@n+1)& (0+255),b
  2431  00088C  0E00               	movlw	0
  2432  00088E  6F92               	movwf	efgtoa@n& (0+255),b
  2433  000890                     
  2434                           ; BSR set to: 0
  2435                           ;C:\Program Files\Microchip\xc8\v2.20\pic\sources\c99\common\doprnt.c: 335:     w = widt
      +                          h;
  2436  000890  C0D0  F07F         	movff	_width,efgtoa@w
  2437  000894  C0D1  F080         	movff	_width+1,efgtoa@w+1
  2438  000898                     
  2439                           ; BSR set to: 0
  2440                           ;C:\Program Files\Microchip\xc8\v2.20\pic\sources\c99\common\doprnt.c: 336:     if (sign
      +                           || (flags & (1 << 2))) {
  2441  000898  517A               	movf	efgtoa@sign& (0+255),w,b
  2442  00089A  117B               	iorwf	(efgtoa@sign+1)& (0+255),w,b
  2443  00089C  A4D8               	btfss	status,2,c
  2444  00089E  EF53  F004         	goto	u3721
  2445  0008A2  EF55  F004         	goto	u3720
  2446  0008A6                     u3721:
  2447  0008A6  EF5C  F004         	goto	l3212
  2448  0008AA                     u3720:
  2449  0008AA                     
  2450                           ; BSR set to: 0
  2451  0008AA  A5D4               	btfss	_flags& (0+255),2,b
  2452  0008AC  EF5A  F004         	goto	u3731
  2453  0008B0  EF5C  F004         	goto	u3730
  2454  0008B4                     u3731:
  2455  0008B4  EF76  F004         	goto	l3224
  2456  0008B8                     u3730:
  2457  0008B8                     l3212:
  2458                           
  2459                           ; BSR set to: 0
  2460                           ;C:\Program Files\Microchip\xc8\v2.20\pic\sources\c99\common\doprnt.c: 337:         dbuf
      +                          [n] = sign ? '-' : '+';
  2461  0008B8  517A               	movf	efgtoa@sign& (0+255),w,b
  2462  0008BA  117B               	iorwf	(efgtoa@sign+1)& (0+255),w,b
  2463  0008BC  A4D8               	btfss	status,2,c
  2464  0008BE  EF63  F004         	goto	u3741
  2465  0008C2  EF65  F004         	goto	u3740
  2466  0008C6                     u3741:
  2467  0008C6  EF6B  F004         	goto	l3216
  2468  0008CA                     u3740:
  2469  0008CA                     
  2470                           ; BSR set to: 0
  2471  0008CA  0E00               	movlw	0
  2472  0008CC  6F65               	movwf	(_efgtoa$974+1)& (0+255),b
  2473  0008CE  0E2B               	movlw	43
  2474  0008D0  6F64               	movwf	_efgtoa$974& (0+255),b
  2475  0008D2  EF6F  F004         	goto	l3218
  2476  0008D6                     l3216:
  2477                           
  2478                           ; BSR set to: 0
  2479  0008D6  0E00               	movlw	0
  2480  0008D8  6F65               	movwf	(_efgtoa$974+1)& (0+255),b
  2481  0008DA  0E2D               	movlw	45
  2482  0008DC  6F64               	movwf	_efgtoa$974& (0+255),b
  2483  0008DE                     l3218:
  2484                           
  2485                           ; BSR set to: 0
  2486  0008DE  C064  F100         	movff	_efgtoa$974,_dbuf
  2487  0008E2                     
  2488                           ; BSR set to: 0
  2489                           ;C:\Program Files\Microchip\xc8\v2.20\pic\sources\c99\common\doprnt.c: 338:         ++n;
  2490  0008E2  4B92               	infsnz	efgtoa@n& (0+255),f,b
  2491  0008E4  2B93               	incf	(efgtoa@n+1)& (0+255),f,b
  2492  0008E6                     
  2493                           ; BSR set to: 0
  2494                           ;C:\Program Files\Microchip\xc8\v2.20\pic\sources\c99\common\doprnt.c: 339:         --w;
  2495  0008E6  077F               	decf	efgtoa@w& (0+255),f,b
  2496  0008E8  A0D8               	btfss	status,0,c
  2497  0008EA  0780               	decf	(efgtoa@w+1)& (0+255),f,b
  2498  0008EC                     l3224:
  2499                           
  2500                           ; BSR set to: 0
  2501                           ;C:\Program Files\Microchip\xc8\v2.20\pic\sources\c99\common\doprnt.c: 344:         if (
      +                          (0 ? isupper((int)c) : ((unsigned)((int)c)-'A') < 26)) {
  2502  0008EC  C08C  F001         	movff	efgtoa@g,___fpclassifyf@x
  2503  0008F0  C08D  F002         	movff	efgtoa@g+1,___fpclassifyf@x+1
  2504  0008F4  C08E  F003         	movff	efgtoa@g+2,___fpclassifyf@x+2
  2505  0008F8  C08F  F004         	movff	efgtoa@g+3,___fpclassifyf@x+3
  2506  0008FC  EC5C  F015         	call	___fpclassifyf	;wreg free
  2507  000900  0401               	decf	?___fpclassifyf^0,w,c
  2508  000902  1002               	iorwf	(?___fpclassifyf+1)^0,w,c
  2509  000904  A4D8               	btfss	status,2,c
  2510  000906  EF87  F004         	goto	u3751
  2511  00090A  EF89  F004         	goto	u3750
  2512  00090E                     u3751:
  2513  00090E  EFE0  F004         	goto	l3242
  2514  000912                     u3750:
  2515  000912  0EBF               	movlw	191
  2516  000914  6E4E               	movwf	??_efgtoa^0,c
  2517  000916  0EFF               	movlw	255
  2518  000918  6E4F               	movwf	(??_efgtoa+1)^0,c
  2519  00091A  504D               	movf	efgtoa@c^0,w,c
  2520  00091C  6E50               	movwf	(??_efgtoa+2)^0,c
  2521  00091E  6A51               	clrf	(??_efgtoa+3)^0,c
  2522  000920  504E               	movf	??_efgtoa^0,w,c
  2523  000922  2650               	addwf	(??_efgtoa+2)^0,f,c
  2524  000924  504F               	movf	(??_efgtoa+1)^0,w,c
  2525  000926  2251               	addwfc	(??_efgtoa+3)^0,f,c
  2526  000928  5051               	movf	(??_efgtoa+3)^0,w,c
  2527  00092A  E10A               	bnz	u3760
  2528  00092C  0E1A               	movlw	26
  2529  00092E  5C50               	subwf	(??_efgtoa+2)^0,w,c
  2530  000930  A0D8               	btfss	status,0,c
  2531  000932  EF9D  F004         	goto	u3761
  2532  000936  EFA0  F004         	goto	u3760
  2533  00093A                     u3761:
  2534  00093A  0E01               	movlw	1
  2535  00093C  EFA1  F004         	goto	u3770
  2536  000940                     u3760:
  2537  000940  0E00               	movlw	0
  2538  000942                     u3770:
  2539  000942  0100               	movlb	0	; () banked
  2540  000944  6F66               	movwf	_efgtoa$975& (0+255),b
  2541  000946  6B67               	clrf	(_efgtoa$975+1)& (0+255),b
  2542  000948                     
  2543                           ; BSR set to: 0
  2544  000948  5166               	movf	_efgtoa$975& (0+255),w,b
  2545  00094A  1167               	iorwf	(_efgtoa$975+1)& (0+255),w,b
  2546  00094C  B4D8               	btfsc	status,2,c
  2547  00094E  EFAB  F004         	goto	u3781
  2548  000952  EFAD  F004         	goto	u3780
  2549  000956                     u3781:
  2550  000956  EFBB  F004         	goto	l3234
  2551  00095A                     u3780:
  2552  00095A                     
  2553                           ; BSR set to: 0
  2554                           ;C:\Program Files\Microchip\xc8\v2.20\pic\sources\c99\common\doprnt.c: 345:             
      +                          strcpy(&dbuf[n], "INF");
  2555  00095A  0E00               	movlw	low _dbuf
  2556  00095C  2592               	addwf	efgtoa@n& (0+255),w,b
  2557  00095E  6E01               	movwf	strcpy@dest^0,c
  2558  000960  0E01               	movlw	high _dbuf
  2559  000962  2193               	addwfc	(efgtoa@n+1)& (0+255),w,b
  2560  000964  6E02               	movwf	(strcpy@dest+1)^0,c
  2561  000966  0E17               	movlw	low STR_6
  2562  000968  6E03               	movwf	strcpy@src^0,c
  2563  00096A  0E08               	movlw	high STR_6
  2564  00096C  6E04               	movwf	(strcpy@src+1)^0,c
  2565  00096E  EC2C  F019         	call	_strcpy	;wreg free
  2566                           
  2567                           ;C:\Program Files\Microchip\xc8\v2.20\pic\sources\c99\common\doprnt.c: 346:         } el
      +                          se {
  2568  000972  EFC7  F004         	goto	l3236
  2569  000976                     l3234:
  2570                           
  2571                           ; BSR set to: 0
  2572                           ;C:\Program Files\Microchip\xc8\v2.20\pic\sources\c99\common\doprnt.c: 347:             
      +                          strcpy(&dbuf[n], "inf");
  2573  000976  0E00               	movlw	low _dbuf
  2574  000978  2592               	addwf	efgtoa@n& (0+255),w,b
  2575  00097A  6E01               	movwf	strcpy@dest^0,c
  2576  00097C  0E01               	movlw	high _dbuf
  2577  00097E  2193               	addwfc	(efgtoa@n+1)& (0+255),w,b
  2578  000980  6E02               	movwf	(strcpy@dest+1)^0,c
  2579  000982  0E1F               	movlw	low STR_7
  2580  000984  6E03               	movwf	strcpy@src^0,c
  2581  000986  0E08               	movlw	high STR_7
  2582  000988  6E04               	movwf	(strcpy@src+1)^0,c
  2583  00098A  EC2C  F019         	call	_strcpy	;wreg free
  2584  00098E                     l3236:
  2585                           
  2586                           ;C:\Program Files\Microchip\xc8\v2.20\pic\sources\c99\common\doprnt.c: 349:         w -=
      +                           ((sizeof("inf")/sizeof("inf"[0]))-1);
  2587  00098E  0100               	movlb	0	; () banked
  2588  000990  0EFD               	movlw	253
  2589  000992  277F               	addwf	efgtoa@w& (0+255),f,b
  2590  000994  0EFF               	movlw	255
  2591  000996  2380               	addwfc	(efgtoa@w+1)& (0+255),f,b
  2592  000998                     l3238:
  2593                           
  2594                           ;C:\Program Files\Microchip\xc8\v2.20\pic\sources\c99\common\doprnt.c: 350:         retu
      +                          rn pad(fp, &dbuf[0], w);
  2595  000998  C047  F011         	movff	efgtoa@fp,pad@fp
  2596  00099C  C048  F012         	movff	efgtoa@fp+1,pad@fp+1
  2597  0009A0  0E00               	movlw	low _dbuf
  2598  0009A2  6E13               	movwf	pad@buf^0,c
  2599  0009A4  0E01               	movlw	high _dbuf
  2600  0009A6  6E14               	movwf	(pad@buf+1)^0,c
  2601  0009A8  C07F  F015         	movff	efgtoa@w,pad@p
  2602  0009AC  C080  F016         	movff	efgtoa@w+1,pad@p+1
  2603  0009B0  ECAB  F016         	call	_pad	;wreg free
  2604  0009B4  C011  F047         	movff	?_pad,?_efgtoa
  2605  0009B8  C012  F048         	movff	?_pad+1,?_efgtoa+1
  2606  0009BC  EFF0  F009         	goto	l853
  2607  0009C0                     l3242:
  2608                           
  2609                           ;C:\Program Files\Microchip\xc8\v2.20\pic\sources\c99\common\doprnt.c: 353:         if (
      +                          (0 ? isupper((int)c) : ((unsigned)((int)c)-'A') < 26)) {
  2610  0009C0  C08C  F001         	movff	efgtoa@g,___fpclassifyf@x
  2611  0009C4  C08D  F002         	movff	efgtoa@g+1,___fpclassifyf@x+1
  2612  0009C8  C08E  F003         	movff	efgtoa@g+2,___fpclassifyf@x+2
  2613  0009CC  C08F  F004         	movff	efgtoa@g+3,___fpclassifyf@x+3
  2614  0009D0  EC5C  F015         	call	___fpclassifyf	;wreg free
  2615  0009D4  5001               	movf	?___fpclassifyf^0,w,c
  2616  0009D6  1002               	iorwf	(?___fpclassifyf+1)^0,w,c
  2617  0009D8  A4D8               	btfss	status,2,c
  2618  0009DA  EFF1  F004         	goto	u3791
  2619  0009DE  EFF3  F004         	goto	u3790
  2620  0009E2                     u3791:
  2621  0009E2  EF33  F005         	goto	l3260
  2622  0009E6                     u3790:
  2623  0009E6  0EBF               	movlw	191
  2624  0009E8  6E4E               	movwf	??_efgtoa^0,c
  2625  0009EA  0EFF               	movlw	255
  2626  0009EC  6E4F               	movwf	(??_efgtoa+1)^0,c
  2627  0009EE  504D               	movf	efgtoa@c^0,w,c
  2628  0009F0  6E50               	movwf	(??_efgtoa+2)^0,c
  2629  0009F2  6A51               	clrf	(??_efgtoa+3)^0,c
  2630  0009F4  504E               	movf	??_efgtoa^0,w,c
  2631  0009F6  2650               	addwf	(??_efgtoa+2)^0,f,c
  2632  0009F8  504F               	movf	(??_efgtoa+1)^0,w,c
  2633  0009FA  2251               	addwfc	(??_efgtoa+3)^0,f,c
  2634  0009FC  5051               	movf	(??_efgtoa+3)^0,w,c
  2635  0009FE  E10A               	bnz	u3800
  2636  000A00  0E1A               	movlw	26
  2637  000A02  5C50               	subwf	(??_efgtoa+2)^0,w,c
  2638  000A04  A0D8               	btfss	status,0,c
  2639  000A06  EF07  F005         	goto	u3801
  2640  000A0A  EF0A  F005         	goto	u3800
  2641  000A0E                     u3801:
  2642  000A0E  0E01               	movlw	1
  2643  000A10  EF0B  F005         	goto	u3810
  2644  000A14                     u3800:
  2645  000A14  0E00               	movlw	0
  2646  000A16                     u3810:
  2647  000A16  0100               	movlb	0	; () banked
  2648  000A18  6F68               	movwf	_efgtoa$980& (0+255),b
  2649  000A1A  6B69               	clrf	(_efgtoa$980+1)& (0+255),b
  2650  000A1C                     
  2651                           ; BSR set to: 0
  2652  000A1C  5168               	movf	_efgtoa$980& (0+255),w,b
  2653  000A1E  1169               	iorwf	(_efgtoa$980+1)& (0+255),w,b
  2654  000A20  B4D8               	btfsc	status,2,c
  2655  000A22  EF15  F005         	goto	u3821
  2656  000A26  EF17  F005         	goto	u3820
  2657  000A2A                     u3821:
  2658  000A2A  EF25  F005         	goto	l3252
  2659  000A2E                     u3820:
  2660  000A2E                     
  2661                           ; BSR set to: 0
  2662                           ;C:\Program Files\Microchip\xc8\v2.20\pic\sources\c99\common\doprnt.c: 354:             
      +                          strcpy(&dbuf[n], "NAN");
  2663  000A2E  0E00               	movlw	low _dbuf
  2664  000A30  2592               	addwf	efgtoa@n& (0+255),w,b
  2665  000A32  6E01               	movwf	strcpy@dest^0,c
  2666  000A34  0E01               	movlw	high _dbuf
  2667  000A36  2193               	addwfc	(efgtoa@n+1)& (0+255),w,b
  2668  000A38  6E02               	movwf	(strcpy@dest+1)^0,c
  2669  000A3A  0E1B               	movlw	low STR_10
  2670  000A3C  6E03               	movwf	strcpy@src^0,c
  2671  000A3E  0E08               	movlw	high STR_10
  2672  000A40  6E04               	movwf	(strcpy@src+1)^0,c
  2673  000A42  EC2C  F019         	call	_strcpy	;wreg free
  2674                           
  2675                           ;C:\Program Files\Microchip\xc8\v2.20\pic\sources\c99\common\doprnt.c: 355:         } el
      +                          se {
  2676  000A46  EFC7  F004         	goto	l3236
  2677  000A4A                     l3252:
  2678                           
  2679                           ; BSR set to: 0
  2680                           ;C:\Program Files\Microchip\xc8\v2.20\pic\sources\c99\common\doprnt.c: 356:             
      +                          strcpy(&dbuf[n], "nan");
  2681  000A4A  0E00               	movlw	low _dbuf
  2682  000A4C  2592               	addwf	efgtoa@n& (0+255),w,b
  2683  000A4E  6E01               	movwf	strcpy@dest^0,c
  2684  000A50  0E01               	movlw	high _dbuf
  2685  000A52  2193               	addwfc	(efgtoa@n+1)& (0+255),w,b
  2686  000A54  6E02               	movwf	(strcpy@dest+1)^0,c
  2687  000A56  0E23               	movlw	low STR_11
  2688  000A58  6E03               	movwf	strcpy@src^0,c
  2689  000A5A  0E08               	movlw	high STR_11
  2690  000A5C  6E04               	movwf	(strcpy@src+1)^0,c
  2691  000A5E  EC2C  F019         	call	_strcpy	;wreg free
  2692  000A62  EFC7  F004         	goto	l3236
  2693  000A66                     l3260:
  2694                           
  2695                           ;C:\Program Files\Microchip\xc8\v2.20\pic\sources\c99\common\doprnt.c: 363:     u = 1.0;
  2696  000A66  0E00               	movlw	0
  2697  000A68  0100               	movlb	0	; () banked
  2698  000A6A  6F94               	movwf	efgtoa@u& (0+255),b
  2699  000A6C  0E00               	movlw	0
  2700  000A6E  6F95               	movwf	(efgtoa@u+1)& (0+255),b
  2701  000A70  0E80               	movlw	128
  2702  000A72  6F96               	movwf	(efgtoa@u+2)& (0+255),b
  2703  000A74  0E3F               	movlw	63
  2704  000A76  6F97               	movwf	(efgtoa@u+3)& (0+255),b
  2705                           
  2706                           ;C:\Program Files\Microchip\xc8\v2.20\pic\sources\c99\common\doprnt.c: 364:     e = 0;
  2707  000A78  0E00               	movlw	0
  2708  000A7A  6F91               	movwf	(efgtoa@e+1)& (0+255),b
  2709  000A7C  0E00               	movlw	0
  2710  000A7E  6F90               	movwf	efgtoa@e& (0+255),b
  2711  000A80                     
  2712                           ; BSR set to: 0
  2713                           ;C:\Program Files\Microchip\xc8\v2.20\pic\sources\c99\common\doprnt.c: 365:     if (!(g 
      +                          == 0.0)) {
  2714  000A80  C08C  F001         	movff	efgtoa@g,___fleq@ff1
  2715  000A84  C08D  F002         	movff	efgtoa@g+1,___fleq@ff1+1
  2716  000A88  C08E  F003         	movff	efgtoa@g+2,___fleq@ff1+2
  2717  000A8C  C08F  F004         	movff	efgtoa@g+3,___fleq@ff1+3
  2718  000A90  0E00               	movlw	0
  2719  000A92  6E05               	movwf	___fleq@ff2^0,c
  2720  000A94  0E00               	movlw	0
  2721  000A96  6E06               	movwf	(___fleq@ff2+1)^0,c
  2722  000A98  0E00               	movlw	0
  2723  000A9A  6E07               	movwf	(___fleq@ff2+2)^0,c
  2724  000A9C  0E00               	movlw	0
  2725  000A9E  6E08               	movwf	(___fleq@ff2+3)^0,c
  2726  000AA0  ECC8  F017         	call	___fleq	;wreg free
  2727  000AA4  B0D8               	btfsc	status,0,c
  2728  000AA6  EF57  F005         	goto	u3831
  2729  000AAA  EF59  F005         	goto	u3830
  2730  000AAE                     u3831:
  2731  000AAE  EFDC  F005         	goto	l3278
  2732  000AB2                     u3830:
  2733  000AB2  EF78  F005         	goto	l3270
  2734  000AB6                     l3266:
  2735                           
  2736                           ;C:\Program Files\Microchip\xc8\v2.20\pic\sources\c99\common\doprnt.c: 367:             
      +                          u = u*10.0;
  2737  000AB6  C094  F001         	movff	efgtoa@u,___flmul@b
  2738  000ABA  C095  F002         	movff	efgtoa@u+1,___flmul@b+1
  2739  000ABE  C096  F003         	movff	efgtoa@u+2,___flmul@b+2
  2740  000AC2  C097  F004         	movff	efgtoa@u+3,___flmul@b+3
  2741  000AC6  0E00               	movlw	0
  2742  000AC8  6E05               	movwf	___flmul@a^0,c
  2743  000ACA  0E00               	movlw	0
  2744  000ACC  6E06               	movwf	(___flmul@a+1)^0,c
  2745  000ACE  0E20               	movlw	32
  2746  000AD0  6E07               	movwf	(___flmul@a+2)^0,c
  2747  000AD2  0E41               	movlw	65
  2748  000AD4  6E08               	movwf	(___flmul@a+3)^0,c
  2749  000AD6  EC51  F00C         	call	___flmul	;wreg free
  2750  000ADA  C001  F094         	movff	?___flmul,efgtoa@u
  2751  000ADE  C002  F095         	movff	?___flmul+1,efgtoa@u+1
  2752  000AE2  C003  F096         	movff	?___flmul+2,efgtoa@u+2
  2753  000AE6  C004  F097         	movff	?___flmul+3,efgtoa@u+3
  2754  000AEA                     
  2755                           ;C:\Program Files\Microchip\xc8\v2.20\pic\sources\c99\common\doprnt.c: 368:             
      +                          ++e;
  2756  000AEA  0100               	movlb	0	; () banked
  2757  000AEC  4B90               	infsnz	efgtoa@e& (0+255),f,b
  2758  000AEE  2B91               	incf	(efgtoa@e+1)& (0+255),f,b
  2759  000AF0                     l3270:
  2760                           
  2761                           ;C:\Program Files\Microchip\xc8\v2.20\pic\sources\c99\common\doprnt.c: 366:         whil
      +                          e (!(g < (u*10.0))) {
  2762  000AF0  C08C  F01A         	movff	efgtoa@g,___flge@ff1
  2763  000AF4  C08D  F01B         	movff	efgtoa@g+1,___flge@ff1+1
  2764  000AF8  C08E  F01C         	movff	efgtoa@g+2,___flge@ff1+2
  2765  000AFC  C08F  F01D         	movff	efgtoa@g+3,___flge@ff1+3
  2766  000B00  0E00               	movlw	0
  2767  000B02  6E05               	movwf	___flmul@a^0,c
  2768  000B04  0E00               	movlw	0
  2769  000B06  6E06               	movwf	(___flmul@a+1)^0,c
  2770  000B08  0E20               	movlw	32
  2771  000B0A  6E07               	movwf	(___flmul@a+2)^0,c
  2772  000B0C  0E41               	movlw	65
  2773  000B0E  6E08               	movwf	(___flmul@a+3)^0,c
  2774  000B10  C094  F001         	movff	efgtoa@u,___flmul@b
  2775  000B14  C095  F002         	movff	efgtoa@u+1,___flmul@b+1
  2776  000B18  C096  F003         	movff	efgtoa@u+2,___flmul@b+2
  2777  000B1C  C097  F004         	movff	efgtoa@u+3,___flmul@b+3
  2778  000B20  EC51  F00C         	call	___flmul	;wreg free
  2779  000B24  C001  F01E         	movff	?___flmul,___flge@ff2
  2780  000B28  C002  F01F         	movff	?___flmul+1,___flge@ff2+1
  2781  000B2C  C003  F020         	movff	?___flmul+2,___flge@ff2+2
  2782  000B30  C004  F021         	movff	?___flmul+3,___flge@ff2+3
  2783  000B34  ECDA  F014         	call	___flge	;wreg free
  2784  000B38  B0D8               	btfsc	status,0,c
  2785  000B3A  EFA1  F005         	goto	u3841
  2786  000B3E  EFA3  F005         	goto	u3840
  2787  000B42                     u3841:
  2788  000B42  EF5B  F005         	goto	l3266
  2789  000B46                     u3840:
  2790  000B46  EFC3  F005         	goto	l3276
  2791  000B4A                     l3272:
  2792                           
  2793                           ;C:\Program Files\Microchip\xc8\v2.20\pic\sources\c99\common\doprnt.c: 371:             
      +                          u = u/10.0;
  2794  000B4A  C094  F01A         	movff	efgtoa@u,___fldiv@b
  2795  000B4E  C095  F01B         	movff	efgtoa@u+1,___fldiv@b+1
  2796  000B52  C096  F01C         	movff	efgtoa@u+2,___fldiv@b+2
  2797  000B56  C097  F01D         	movff	efgtoa@u+3,___fldiv@b+3
  2798  000B5A  0E00               	movlw	0
  2799  000B5C  6E1E               	movwf	___fldiv@a^0,c
  2800  000B5E  0E00               	movlw	0
  2801  000B60  6E1F               	movwf	(___fldiv@a+1)^0,c
  2802  000B62  0E20               	movlw	32
  2803  000B64  6E20               	movwf	(___fldiv@a+2)^0,c
  2804  000B66  0E41               	movlw	65
  2805  000B68  6E21               	movwf	(___fldiv@a+3)^0,c
  2806  000B6A  EC66  F00E         	call	___fldiv	;wreg free
  2807  000B6E  C01A  F094         	movff	?___fldiv,efgtoa@u
  2808  000B72  C01B  F095         	movff	?___fldiv+1,efgtoa@u+1
  2809  000B76  C01C  F096         	movff	?___fldiv+2,efgtoa@u+2
  2810  000B7A  C01D  F097         	movff	?___fldiv+3,efgtoa@u+3
  2811  000B7E                     
  2812                           ;C:\Program Files\Microchip\xc8\v2.20\pic\sources\c99\common\doprnt.c: 372:             
      +                          --e;
  2813  000B7E  0100               	movlb	0	; () banked
  2814  000B80  0790               	decf	efgtoa@e& (0+255),f,b
  2815  000B82  A0D8               	btfss	status,0,c
  2816  000B84  0791               	decf	(efgtoa@e+1)& (0+255),f,b
  2817  000B86                     l3276:
  2818                           
  2819                           ;C:\Program Files\Microchip\xc8\v2.20\pic\sources\c99\common\doprnt.c: 370:         whil
      +                          e (g < u) {
  2820  000B86  C08C  F01A         	movff	efgtoa@g,___flge@ff1
  2821  000B8A  C08D  F01B         	movff	efgtoa@g+1,___flge@ff1+1
  2822  000B8E  C08E  F01C         	movff	efgtoa@g+2,___flge@ff1+2
  2823  000B92  C08F  F01D         	movff	efgtoa@g+3,___flge@ff1+3
  2824  000B96  C094  F01E         	movff	efgtoa@u,___flge@ff2
  2825  000B9A  C095  F01F         	movff	efgtoa@u+1,___flge@ff2+1
  2826  000B9E  C096  F020         	movff	efgtoa@u+2,___flge@ff2+2
  2827  000BA2  C097  F021         	movff	efgtoa@u+3,___flge@ff2+3
  2828  000BA6  ECDA  F014         	call	___flge	;wreg free
  2829  000BAA  A0D8               	btfss	status,0,c
  2830  000BAC  EFDA  F005         	goto	u3851
  2831  000BB0  EFDC  F005         	goto	u3850
  2832  000BB4                     u3851:
  2833  000BB4  EFA5  F005         	goto	l3272
  2834  000BB8                     u3850:
  2835  000BB8                     l3278:
  2836                           
  2837                           ;C:\Program Files\Microchip\xc8\v2.20\pic\sources\c99\common\doprnt.c: 377:     mode = t
      +                          olower((int)c);
  2838  000BB8  C04D  F007         	movff	efgtoa@c,tolower@c
  2839  000BBC  6A08               	clrf	(tolower@c+1)^0,c
  2840  000BBE  EC9E  F018         	call	_tolower	;wreg free
  2841  000BC2  5007               	movf	?_tolower^0,w,c
  2842  000BC4  0100               	movlb	0	; () banked
  2843  000BC6  6F81               	movwf	efgtoa@mode& (0+255),b
  2844  000BC8                     
  2845                           ; BSR set to: 0
  2846                           ;C:\Program Files\Microchip\xc8\v2.20\pic\sources\c99\common\doprnt.c: 378:     nmode = 
      +                          mode;
  2847  000BC8  C081  F07E         	movff	efgtoa@mode,efgtoa@nmode
  2848  000BCC                     
  2849                           ; BSR set to: 0
  2850                           ;C:\Program Files\Microchip\xc8\v2.20\pic\sources\c99\common\doprnt.c: 379:     if (mode
      +                           == 'g') {
  2851  000BCC  0E67               	movlw	103
  2852  000BCE  1981               	xorwf	efgtoa@mode& (0+255),w,b
  2853  000BD0  A4D8               	btfss	status,2,c
  2854  000BD2  EFED  F005         	goto	u3861
  2855  000BD6  EFEF  F005         	goto	u3860
  2856  000BDA                     u3861:
  2857  000BDA  EF15  F006         	goto	l3292
  2858  000BDE                     u3860:
  2859  000BDE                     
  2860                           ; BSR set to: 0
  2861                           ;C:\Program Files\Microchip\xc8\v2.20\pic\sources\c99\common\doprnt.c: 380:   if (prec =
      +                          = 0) {
  2862  000BDE  51D2               	movf	_prec& (0+255),w,b
  2863  000BE0  11D3               	iorwf	(_prec+1)& (0+255),w,b
  2864  000BE2  A4D8               	btfss	status,2,c
  2865  000BE4  EFF6  F005         	goto	u3871
  2866  000BE8  EFF8  F005         	goto	u3870
  2867  000BEC                     u3871:
  2868  000BEC  EFFC  F005         	goto	l3288
  2869  000BF0                     u3870:
  2870  000BF0                     
  2871                           ; BSR set to: 0
  2872                           ;C:\Program Files\Microchip\xc8\v2.20\pic\sources\c99\common\doprnt.c: 381:    prec = 1;
  2873  000BF0  0E00               	movlw	0
  2874  000BF2  6FD3               	movwf	(_prec+1)& (0+255),b
  2875  000BF4  0E01               	movlw	1
  2876  000BF6  6FD2               	movwf	_prec& (0+255),b
  2877  000BF8                     l3288:
  2878                           
  2879                           ; BSR set to: 0
  2880                           ;C:\Program Files\Microchip\xc8\v2.20\pic\sources\c99\common\doprnt.c: 383:         p = 
      +                          (0 < prec) ? prec : 6;
  2881  000BF8  BFD3               	btfsc	(_prec+1)& (0+255),7,b
  2882  000BFA  EF09  F006         	goto	u3880
  2883  000BFE  51D3               	movf	(_prec+1)& (0+255),w,b
  2884  000C00  E106               	bnz	u3881
  2885  000C02  05D2               	decf	_prec& (0+255),w,b
  2886  000C04  B0D8               	btfsc	status,0,c
  2887  000C06  EF07  F006         	goto	u3881
  2888  000C0A  EF09  F006         	goto	u3880
  2889  000C0E                     u3881:
  2890  000C0E  EF0F  F006         	goto	l871
  2891  000C12                     u3880:
  2892  000C12                     l3290:
  2893                           
  2894                           ; BSR set to: 0
  2895  000C12  0E00               	movlw	0
  2896  000C14  6F7D               	movwf	(efgtoa@p+1)& (0+255),b
  2897  000C16  0E06               	movlw	6
  2898  000C18  6F7C               	movwf	efgtoa@p& (0+255),b
  2899  000C1A  EF1E  F006         	goto	l3298
  2900  000C1E                     l871:
  2901                           
  2902                           ; BSR set to: 0
  2903  000C1E  C0D2  F07C         	movff	_prec,efgtoa@p
  2904  000C22  C0D3  F07D         	movff	_prec+1,efgtoa@p+1
  2905  000C26  EF1E  F006         	goto	l3298
  2906  000C2A                     l3292:
  2907                           
  2908                           ; BSR set to: 0
  2909                           ;C:\Program Files\Microchip\xc8\v2.20\pic\sources\c99\common\doprnt.c: 385:         p = 
      +                          (prec < 0) ? 6 : prec;
  2910  000C2A  BFD3               	btfsc	(_prec+1)& (0+255),7,b
  2911  000C2C  EF1A  F006         	goto	u3891
  2912  000C30  EF1C  F006         	goto	u3890
  2913  000C34                     u3891:
  2914  000C34  EF09  F006         	goto	l3290
  2915  000C38                     u3890:
  2916  000C38  EF0F  F006         	goto	l871
  2917  000C3C                     l3298:
  2918                           
  2919                           ; BSR set to: 0
  2920                           ;C:\Program Files\Microchip\xc8\v2.20\pic\sources\c99\common\doprnt.c: 389:     if (mode
      +                           == 'g') {
  2921  000C3C  0E67               	movlw	103
  2922  000C3E  1981               	xorwf	efgtoa@mode& (0+255),w,b
  2923  000C40  A4D8               	btfss	status,2,c
  2924  000C42  EF25  F006         	goto	u3901
  2925  000C46  EF27  F006         	goto	u3900
  2926  000C4A                     u3901:
  2927  000C4A  EF56  F006         	goto	l3308
  2928  000C4E                     u3900:
  2929  000C4E                     
  2930                           ; BSR set to: 0
  2931                           ;C:\Program Files\Microchip\xc8\v2.20\pic\sources\c99\common\doprnt.c: 390:         if (
      +                          !(e < -4) && !((p - 1) < e)) {
  2932  000C4E  AF91               	btfss	(efgtoa@e+1)& (0+255),7,b
  2933  000C50  EF35  F006         	goto	u3910
  2934  000C54  0EFC               	movlw	252
  2935  000C56  5D90               	subwf	efgtoa@e& (0+255),w,b
  2936  000C58  0EFF               	movlw	255
  2937  000C5A  5991               	subwfb	(efgtoa@e+1)& (0+255),w,b
  2938  000C5C  A0D8               	btfss	status,0,c
  2939  000C5E  EF33  F006         	goto	u3911
  2940  000C62  EF35  F006         	goto	u3910
  2941  000C66                     u3911:
  2942  000C66  EF54  F006         	goto	l3306
  2943  000C6A                     u3910:
  2944  000C6A                     
  2945                           ; BSR set to: 0
  2946  000C6A  0EFF               	movlw	255
  2947  000C6C  6E4E               	movwf	??_efgtoa^0,c
  2948  000C6E  0EFF               	movlw	255
  2949  000C70  6E4F               	movwf	(??_efgtoa+1)^0,c
  2950  000C72  C07C  F050         	movff	efgtoa@p,??_efgtoa+2
  2951  000C76  C07D  F051         	movff	efgtoa@p+1,??_efgtoa+3
  2952  000C7A  504E               	movf	??_efgtoa^0,w,c
  2953  000C7C  2650               	addwf	(??_efgtoa+2)^0,f,c
  2954  000C7E  504F               	movf	(??_efgtoa+1)^0,w,c
  2955  000C80  2251               	addwfc	(??_efgtoa+3)^0,f,c
  2956  000C82  5190               	movf	efgtoa@e& (0+255),w,b
  2957  000C84  5C50               	subwf	(??_efgtoa+2)^0,w,c
  2958  000C86  5051               	movf	(??_efgtoa+3)^0,w,c
  2959  000C88  0A80               	xorlw	128
  2960  000C8A  6E52               	movwf	(??_efgtoa+4)^0,c
  2961  000C8C  5191               	movf	(efgtoa@e+1)& (0+255),w,b
  2962  000C8E  0A80               	xorlw	128
  2963  000C90  5852               	subwfb	(??_efgtoa+4)^0,w,c
  2964  000C92  A0D8               	btfss	status,0,c
  2965  000C94  EF4E  F006         	goto	u3921
  2966  000C98  EF50  F006         	goto	u3920
  2967  000C9C                     u3921:
  2968  000C9C  EF54  F006         	goto	l3306
  2969  000CA0                     u3920:
  2970  000CA0                     
  2971                           ; BSR set to: 0
  2972                           ;C:\Program Files\Microchip\xc8\v2.20\pic\sources\c99\common\doprnt.c: 391:             
      +                          nmode = 'f';
  2973  000CA0  0E66               	movlw	102
  2974  000CA2  6F7E               	movwf	efgtoa@nmode& (0+255),b
  2975                           
  2976                           ;C:\Program Files\Microchip\xc8\v2.20\pic\sources\c99\common\doprnt.c: 392:         } el
      +                          se {
  2977  000CA4  EF56  F006         	goto	l3308
  2978  000CA8                     l3306:
  2979                           
  2980                           ; BSR set to: 0
  2981                           ;C:\Program Files\Microchip\xc8\v2.20\pic\sources\c99\common\doprnt.c: 393:             
      +                          nmode = 'e';
  2982  000CA8  0E65               	movlw	101
  2983  000CAA  6F7E               	movwf	efgtoa@nmode& (0+255),b
  2984  000CAC                     l3308:
  2985                           
  2986                           ; BSR set to: 0
  2987                           ;C:\Program Files\Microchip\xc8\v2.20\pic\sources\c99\common\doprnt.c: 398:     m = p;
  2988  000CAC  C07C  F074         	movff	efgtoa@p,efgtoa@m
  2989  000CB0  C07D  F075         	movff	efgtoa@p+1,efgtoa@m+1
  2990  000CB4                     
  2991                           ; BSR set to: 0
  2992                           ;C:\Program Files\Microchip\xc8\v2.20\pic\sources\c99\common\doprnt.c: 399:     if (!(mo
      +                          de == 'g') || ((nmode == 'f') && (e < 0))) {
  2993  000CB4  0E67               	movlw	103
  2994  000CB6  1981               	xorwf	efgtoa@mode& (0+255),w,b
  2995  000CB8  A4D8               	btfss	status,2,c
  2996  000CBA  EF61  F006         	goto	u3931
  2997  000CBE  EF63  F006         	goto	u3930
  2998  000CC2                     u3931:
  2999  000CC2  EF73  F006         	goto	l3316
  3000  000CC6                     u3930:
  3001  000CC6                     
  3002                           ; BSR set to: 0
  3003  000CC6  0E66               	movlw	102
  3004  000CC8  197E               	xorwf	efgtoa@nmode& (0+255),w,b
  3005  000CCA  A4D8               	btfss	status,2,c
  3006  000CCC  EF6A  F006         	goto	u3941
  3007  000CD0  EF6C  F006         	goto	u3940
  3008  000CD4                     u3941:
  3009  000CD4  EF75  F006         	goto	l3318
  3010  000CD8                     u3940:
  3011  000CD8                     
  3012                           ; BSR set to: 0
  3013  000CD8  BF91               	btfsc	(efgtoa@e+1)& (0+255),7,b
  3014  000CDA  EF73  F006         	goto	u3950
  3015  000CDE  EF71  F006         	goto	u3951
  3016  000CE2                     u3951:
  3017  000CE2  EF75  F006         	goto	l3318
  3018  000CE6                     u3950:
  3019  000CE6                     l3316:
  3020                           
  3021                           ; BSR set to: 0
  3022                           ;C:\Program Files\Microchip\xc8\v2.20\pic\sources\c99\common\doprnt.c: 400:         ++m;
  3023  000CE6  4B74               	infsnz	efgtoa@m& (0+255),f,b
  3024  000CE8  2B75               	incf	(efgtoa@m+1)& (0+255),f,b
  3025  000CEA                     l3318:
  3026                           
  3027                           ; BSR set to: 0
  3028                           ;C:\Program Files\Microchip\xc8\v2.20\pic\sources\c99\common\doprnt.c: 404:     if (nmod
      +                          e == 'f') {
  3029  000CEA  0E66               	movlw	102
  3030  000CEC  197E               	xorwf	efgtoa@nmode& (0+255),w,b
  3031  000CEE  A4D8               	btfss	status,2,c
  3032  000CF0  EF7C  F006         	goto	u3961
  3033  000CF4  EF7E  F006         	goto	u3960
  3034  000CF8                     u3961:
  3035  000CF8  EF9E  F006         	goto	l3328
  3036  000CFC                     u3960:
  3037  000CFC                     
  3038                           ; BSR set to: 0
  3039                           ;C:\Program Files\Microchip\xc8\v2.20\pic\sources\c99\common\doprnt.c: 405:         if (
      +                          e < 0) {
  3040  000CFC  BF91               	btfsc	(efgtoa@e+1)& (0+255),7,b
  3041  000CFE  EF85  F006         	goto	u3970
  3042  000D02  EF83  F006         	goto	u3971
  3043  000D06                     u3971:
  3044  000D06  EF91  F006         	goto	l3324
  3045  000D0A                     u3970:
  3046  000D0A                     
  3047                           ; BSR set to: 0
  3048                           ;C:\Program Files\Microchip\xc8\v2.20\pic\sources\c99\common\doprnt.c: 406:             
      +                          u = 1.0;
  3049  000D0A  0E00               	movlw	0
  3050  000D0C  6F94               	movwf	efgtoa@u& (0+255),b
  3051  000D0E  0E00               	movlw	0
  3052  000D10  6F95               	movwf	(efgtoa@u+1)& (0+255),b
  3053  000D12  0E80               	movlw	128
  3054  000D14  6F96               	movwf	(efgtoa@u+2)& (0+255),b
  3055  000D16  0E3F               	movlw	63
  3056  000D18  6F97               	movwf	(efgtoa@u+3)& (0+255),b
  3057                           
  3058                           ;C:\Program Files\Microchip\xc8\v2.20\pic\sources\c99\common\doprnt.c: 407:             
      +                          e = 0;
  3059  000D1A  0E00               	movlw	0
  3060  000D1C  6F91               	movwf	(efgtoa@e+1)& (0+255),b
  3061  000D1E  0E00               	movlw	0
  3062  000D20  6F90               	movwf	efgtoa@e& (0+255),b
  3063  000D22                     l3324:
  3064                           
  3065                           ; BSR set to: 0
  3066                           ;C:\Program Files\Microchip\xc8\v2.20\pic\sources\c99\common\doprnt.c: 409:         if (
      +                          !(mode == 'g')) {
  3067  000D22  0E67               	movlw	103
  3068  000D24  1981               	xorwf	efgtoa@mode& (0+255),w,b
  3069  000D26  B4D8               	btfsc	status,2,c
  3070  000D28  EF98  F006         	goto	u3981
  3071  000D2C  EF9A  F006         	goto	u3980
  3072  000D30                     u3981:
  3073  000D30  EF9E  F006         	goto	l3328
  3074  000D34                     u3980:
  3075  000D34                     
  3076                           ; BSR set to: 0
  3077                           ;C:\Program Files\Microchip\xc8\v2.20\pic\sources\c99\common\doprnt.c: 410:             
      +                          m += e;
  3078  000D34  5190               	movf	efgtoa@e& (0+255),w,b
  3079  000D36  2774               	addwf	efgtoa@m& (0+255),f,b
  3080  000D38  5191               	movf	(efgtoa@e+1)& (0+255),w,b
  3081  000D3A  2375               	addwfc	(efgtoa@m+1)& (0+255),f,b
  3082  000D3C                     l3328:
  3083                           
  3084                           ; BSR set to: 0
  3085                           ;C:\Program Files\Microchip\xc8\v2.20\pic\sources\c99\common\doprnt.c: 415:     i = 0;
  3086  000D3C  0E00               	movlw	0
  3087  000D3E  6F8B               	movwf	(efgtoa@i+1)& (0+255),b
  3088  000D40  0E00               	movlw	0
  3089  000D42  6F8A               	movwf	efgtoa@i& (0+255),b
  3090  000D44                     
  3091                           ; BSR set to: 0
  3092                           ;C:\Program Files\Microchip\xc8\v2.20\pic\sources\c99\common\doprnt.c: 416:     h = g;
  3093  000D44  C08C  F082         	movff	efgtoa@g,efgtoa@h
  3094  000D48  C08D  F083         	movff	efgtoa@g+1,efgtoa@h+1
  3095  000D4C  C08E  F084         	movff	efgtoa@g+2,efgtoa@h+2
  3096  000D50  C08F  F085         	movff	efgtoa@g+3,efgtoa@h+3
  3097  000D54                     
  3098                           ; BSR set to: 0
  3099                           ;C:\Program Files\Microchip\xc8\v2.20\pic\sources\c99\common\doprnt.c: 417:     ou = u;
  3100  000D54  C094  F060         	movff	efgtoa@u,efgtoa@ou
  3101  000D58  C095  F061         	movff	efgtoa@u+1,efgtoa@ou+1
  3102  000D5C  C096  F062         	movff	efgtoa@u+2,efgtoa@ou+2
  3103  000D60  C097  F063         	movff	efgtoa@u+3,efgtoa@ou+3
  3104                           
  3105                           ;C:\Program Files\Microchip\xc8\v2.20\pic\sources\c99\common\doprnt.c: 418:     while (i
      +                           < m) {
  3106  000D64  EF2F  F007         	goto	l3342
  3107  000D68                     l3334:
  3108                           
  3109                           ; BSR set to: 0
  3110                           ;C:\Program Files\Microchip\xc8\v2.20\pic\sources\c99\common\doprnt.c: 419:         l = 
      +                          floorf(h/u);
  3111  000D68  C082  F01A         	movff	efgtoa@h,___fldiv@b
  3112  000D6C  C083  F01B         	movff	efgtoa@h+1,___fldiv@b+1
  3113  000D70  C084  F01C         	movff	efgtoa@h+2,___fldiv@b+2
  3114  000D74  C085  F01D         	movff	efgtoa@h+3,___fldiv@b+3
  3115  000D78  C094  F01E         	movff	efgtoa@u,___fldiv@a
  3116  000D7C  C095  F01F         	movff	efgtoa@u+1,___fldiv@a+1
  3117  000D80  C096  F020         	movff	efgtoa@u+2,___fldiv@a+2
  3118  000D84  C097  F021         	movff	efgtoa@u+3,___fldiv@a+3
  3119  000D88  EC66  F00E         	call	___fldiv	;wreg free
  3120  000D8C  C01A  F033         	movff	?___fldiv,floorf@x
  3121  000D90  C01B  F034         	movff	?___fldiv+1,floorf@x+1
  3122  000D94  C01C  F035         	movff	?___fldiv+2,floorf@x+2
  3123  000D98  C01D  F036         	movff	?___fldiv+3,floorf@x+3
  3124  000D9C  ECD8  F011         	call	_floorf	;wreg free
  3125  000DA0  C033  F086         	movff	?_floorf,efgtoa@l
  3126  000DA4  C034  F087         	movff	?_floorf+1,efgtoa@l+1
  3127  000DA8  C035  F088         	movff	?_floorf+2,efgtoa@l+2
  3128  000DAC  C036  F089         	movff	?_floorf+3,efgtoa@l+3
  3129                           
  3130                           ;C:\Program Files\Microchip\xc8\v2.20\pic\sources\c99\common\doprnt.c: 420:         d = 
      +                          (int)l;
  3131  000DB0  C086  F001         	movff	efgtoa@l,___fltol@f1
  3132  000DB4  C087  F002         	movff	efgtoa@l+1,___fltol@f1+1
  3133  000DB8  C088  F003         	movff	efgtoa@l+2,___fltol@f1+2
  3134  000DBC  C089  F004         	movff	efgtoa@l+3,___fltol@f1+3
  3135  000DC0  EC57  F014         	call	___fltol	;wreg free
  3136  000DC4  C001  F078         	movff	?___fltol,efgtoa@d
  3137  000DC8  C002  F079         	movff	?___fltol+1,efgtoa@d+1
  3138  000DCC                     
  3139                           ;C:\Program Files\Microchip\xc8\v2.20\pic\sources\c99\common\doprnt.c: 421:         h -=
      +                           l*u;
  3140  000DCC  C082  F01A         	movff	efgtoa@h,___flsub@b
  3141  000DD0  C083  F01B         	movff	efgtoa@h+1,___flsub@b+1
  3142  000DD4  C084  F01C         	movff	efgtoa@h+2,___flsub@b+2
  3143  000DD8  C085  F01D         	movff	efgtoa@h+3,___flsub@b+3
  3144  000DDC  C094  F005         	movff	efgtoa@u,___flmul@a
  3145  000DE0  C095  F006         	movff	efgtoa@u+1,___flmul@a+1
  3146  000DE4  C096  F007         	movff	efgtoa@u+2,___flmul@a+2
  3147  000DE8  C097  F008         	movff	efgtoa@u+3,___flmul@a+3
  3148  000DEC  C086  F001         	movff	efgtoa@l,___flmul@b
  3149  000DF0  C087  F002         	movff	efgtoa@l+1,___flmul@b+1
  3150  000DF4  C088  F003         	movff	efgtoa@l+2,___flmul@b+2
  3151  000DF8  C089  F004         	movff	efgtoa@l+3,___flmul@b+3
  3152  000DFC  EC51  F00C         	call	___flmul	;wreg free
  3153  000E00  C001  F01E         	movff	?___flmul,___flsub@a
  3154  000E04  C002  F01F         	movff	?___flmul+1,___flsub@a+1
  3155  000E08  C003  F020         	movff	?___flmul+2,___flsub@a+2
  3156  000E0C  C004  F021         	movff	?___flmul+3,___flsub@a+3
  3157  000E10  ECA9  F019         	call	___flsub	;wreg free
  3158  000E14  C01A  F082         	movff	?___flsub,efgtoa@h
  3159  000E18  C01B  F083         	movff	?___flsub+1,efgtoa@h+1
  3160  000E1C  C01C  F084         	movff	?___flsub+2,efgtoa@h+2
  3161  000E20  C01D  F085         	movff	?___flsub+3,efgtoa@h+3
  3162  000E24                     
  3163                           ;C:\Program Files\Microchip\xc8\v2.20\pic\sources\c99\common\doprnt.c: 422:         u = 
      +                          u/10.0;
  3164  000E24  C094  F01A         	movff	efgtoa@u,___fldiv@b
  3165  000E28  C095  F01B         	movff	efgtoa@u+1,___fldiv@b+1
  3166  000E2C  C096  F01C         	movff	efgtoa@u+2,___fldiv@b+2
  3167  000E30  C097  F01D         	movff	efgtoa@u+3,___fldiv@b+3
  3168  000E34  0E00               	movlw	0
  3169  000E36  6E1E               	movwf	___fldiv@a^0,c
  3170  000E38  0E00               	movlw	0
  3171  000E3A  6E1F               	movwf	(___fldiv@a+1)^0,c
  3172  000E3C  0E20               	movlw	32
  3173  000E3E  6E20               	movwf	(___fldiv@a+2)^0,c
  3174  000E40  0E41               	movlw	65
  3175  000E42  6E21               	movwf	(___fldiv@a+3)^0,c
  3176  000E44  EC66  F00E         	call	___fldiv	;wreg free
  3177  000E48  C01A  F094         	movff	?___fldiv,efgtoa@u
  3178  000E4C  C01B  F095         	movff	?___fldiv+1,efgtoa@u+1
  3179  000E50  C01C  F096         	movff	?___fldiv+2,efgtoa@u+2
  3180  000E54  C01D  F097         	movff	?___fldiv+3,efgtoa@u+3
  3181  000E58                     
  3182                           ;C:\Program Files\Microchip\xc8\v2.20\pic\sources\c99\common\doprnt.c: 423:         ++i;
  3183  000E58  0100               	movlb	0	; () banked
  3184  000E5A  4B8A               	infsnz	efgtoa@i& (0+255),f,b
  3185  000E5C  2B8B               	incf	(efgtoa@i+1)& (0+255),f,b
  3186  000E5E                     l3342:
  3187                           
  3188                           ; BSR set to: 0
  3189                           ;C:\Program Files\Microchip\xc8\v2.20\pic\sources\c99\common\doprnt.c: 418:     while (i
      +                           < m) {
  3190  000E5E  5174               	movf	efgtoa@m& (0+255),w,b
  3191  000E60  5D8A               	subwf	efgtoa@i& (0+255),w,b
  3192  000E62  518B               	movf	(efgtoa@i+1)& (0+255),w,b
  3193  000E64  0A80               	xorlw	128
  3194  000E66  6E4E               	movwf	??_efgtoa^0,c
  3195  000E68  5175               	movf	(efgtoa@m+1)& (0+255),w,b
  3196  000E6A  0A80               	xorlw	128
  3197  000E6C  584E               	subwfb	??_efgtoa^0,w,c
  3198  000E6E  A0D8               	btfss	status,0,c
  3199  000E70  EF3C  F007         	goto	u3991
  3200  000E74  EF3E  F007         	goto	u3990
  3201  000E78                     u3991:
  3202  000E78  EFB4  F006         	goto	l3334
  3203  000E7C                     u3990:
  3204  000E7C                     
  3205                           ; BSR set to: 0
  3206                           ;C:\Program Files\Microchip\xc8\v2.20\pic\sources\c99\common\doprnt.c: 427:     l = u*5.
      +                          0;
  3207  000E7C  C094  F001         	movff	efgtoa@u,___flmul@b
  3208  000E80  C095  F002         	movff	efgtoa@u+1,___flmul@b+1
  3209  000E84  C096  F003         	movff	efgtoa@u+2,___flmul@b+2
  3210  000E88  C097  F004         	movff	efgtoa@u+3,___flmul@b+3
  3211  000E8C  0E00               	movlw	0
  3212  000E8E  6E05               	movwf	___flmul@a^0,c
  3213  000E90  0E00               	movlw	0
  3214  000E92  6E06               	movwf	(___flmul@a+1)^0,c
  3215  000E94  0EA0               	movlw	160
  3216  000E96  6E07               	movwf	(___flmul@a+2)^0,c
  3217  000E98  0E40               	movlw	64
  3218  000E9A  6E08               	movwf	(___flmul@a+3)^0,c
  3219  000E9C  EC51  F00C         	call	___flmul	;wreg free
  3220  000EA0  C001  F086         	movff	?___flmul,efgtoa@l
  3221  000EA4  C002  F087         	movff	?___flmul+1,efgtoa@l+1
  3222  000EA8  C003  F088         	movff	?___flmul+2,efgtoa@l+2
  3223  000EAC  C004  F089         	movff	?___flmul+3,efgtoa@l+3
  3224  000EB0                     
  3225                           ;C:\Program Files\Microchip\xc8\v2.20\pic\sources\c99\common\doprnt.c: 428:     if (h < 
      +                          l) {
  3226  000EB0  C082  F01A         	movff	efgtoa@h,___flge@ff1
  3227  000EB4  C083  F01B         	movff	efgtoa@h+1,___flge@ff1+1
  3228  000EB8  C084  F01C         	movff	efgtoa@h+2,___flge@ff1+2
  3229  000EBC  C085  F01D         	movff	efgtoa@h+3,___flge@ff1+3
  3230  000EC0  C086  F01E         	movff	efgtoa@l,___flge@ff2
  3231  000EC4  C087  F01F         	movff	efgtoa@l+1,___flge@ff2+1
  3232  000EC8  C088  F020         	movff	efgtoa@l+2,___flge@ff2+2
  3233  000ECC  C089  F021         	movff	efgtoa@l+3,___flge@ff2+3
  3234  000ED0  ECDA  F014         	call	___flge	;wreg free
  3235  000ED4  B0D8               	btfsc	status,0,c
  3236  000ED6  EF6F  F007         	goto	u4001
  3237  000EDA  EF71  F007         	goto	u4000
  3238  000EDE                     u4001:
  3239  000EDE  EF7C  F007         	goto	l3350
  3240  000EE2                     u4000:
  3241  000EE2                     
  3242                           ;C:\Program Files\Microchip\xc8\v2.20\pic\sources\c99\common\doprnt.c: 429:         l = 
      +                          0.0;
  3243  000EE2  0E00               	movlw	0
  3244  000EE4  0100               	movlb	0	; () banked
  3245  000EE6  6F86               	movwf	efgtoa@l& (0+255),b
  3246  000EE8  0E00               	movlw	0
  3247  000EEA  6F87               	movwf	(efgtoa@l+1)& (0+255),b
  3248  000EEC  0E00               	movlw	0
  3249  000EEE  6F88               	movwf	(efgtoa@l+2)& (0+255),b
  3250  000EF0  0E00               	movlw	0
  3251  000EF2  6F89               	movwf	(efgtoa@l+3)& (0+255),b
  3252                           
  3253                           ;C:\Program Files\Microchip\xc8\v2.20\pic\sources\c99\common\doprnt.c: 430:     } else {
  3254  000EF4  EFA5  F007         	goto	l3356
  3255  000EF8                     l3350:
  3256                           
  3257                           ;C:\Program Files\Microchip\xc8\v2.20\pic\sources\c99\common\doprnt.c: 432:         if (
      +                          (h == l) && !(d % 2)) {
  3258  000EF8  C082  F001         	movff	efgtoa@h,___fleq@ff1
  3259  000EFC  C083  F002         	movff	efgtoa@h+1,___fleq@ff1+1
  3260  000F00  C084  F003         	movff	efgtoa@h+2,___fleq@ff1+2
  3261  000F04  C085  F004         	movff	efgtoa@h+3,___fleq@ff1+3
  3262  000F08  C086  F005         	movff	efgtoa@l,___fleq@ff2
  3263  000F0C  C087  F006         	movff	efgtoa@l+1,___fleq@ff2+1
  3264  000F10  C088  F007         	movff	efgtoa@l+2,___fleq@ff2+2
  3265  000F14  C089  F008         	movff	efgtoa@l+3,___fleq@ff2+3
  3266  000F18  ECC8  F017         	call	___fleq	;wreg free
  3267  000F1C  A0D8               	btfss	status,0,c
  3268  000F1E  EF93  F007         	goto	u4011
  3269  000F22  EF95  F007         	goto	u4010
  3270  000F26                     u4011:
  3271  000F26  EFA5  F007         	goto	l3356
  3272  000F2A                     u4010:
  3273  000F2A  0100               	movlb	0	; () banked
  3274  000F2C  B178               	btfsc	efgtoa@d& (0+255),0,b
  3275  000F2E  EF9B  F007         	goto	u4021
  3276  000F32  EF9D  F007         	goto	u4020
  3277  000F36                     u4021:
  3278  000F36  EFA5  F007         	goto	l3356
  3279  000F3A                     u4020:
  3280  000F3A                     
  3281                           ; BSR set to: 0
  3282                           ;C:\Program Files\Microchip\xc8\v2.20\pic\sources\c99\common\doprnt.c: 433:             
      +                          l = 0.0;
  3283  000F3A  0E00               	movlw	0
  3284  000F3C  6F86               	movwf	efgtoa@l& (0+255),b
  3285  000F3E  0E00               	movlw	0
  3286  000F40  6F87               	movwf	(efgtoa@l+1)& (0+255),b
  3287  000F42  0E00               	movlw	0
  3288  000F44  6F88               	movwf	(efgtoa@l+2)& (0+255),b
  3289  000F46  0E00               	movlw	0
  3290  000F48  6F89               	movwf	(efgtoa@l+3)& (0+255),b
  3291  000F4A                     l3356:
  3292                           
  3293                           ;C:\Program Files\Microchip\xc8\v2.20\pic\sources\c99\common\doprnt.c: 438:     h = g + 
      +                          l;
  3294  000F4A  C08C  F001         	movff	efgtoa@g,___fladd@b
  3295  000F4E  C08D  F002         	movff	efgtoa@g+1,___fladd@b+1
  3296  000F52  C08E  F003         	movff	efgtoa@g+2,___fladd@b+2
  3297  000F56  C08F  F004         	movff	efgtoa@g+3,___fladd@b+3
  3298  000F5A  C086  F005         	movff	efgtoa@l,___fladd@a
  3299  000F5E  C087  F006         	movff	efgtoa@l+1,___fladd@a+1
  3300  000F62  C088  F007         	movff	efgtoa@l+2,___fladd@a+2
  3301  000F66  C089  F008         	movff	efgtoa@l+3,___fladd@a+3
  3302  000F6A  ECF1  F009         	call	___fladd	;wreg free
  3303  000F6E  C001  F082         	movff	?___fladd,efgtoa@h
  3304  000F72  C002  F083         	movff	?___fladd+1,efgtoa@h+1
  3305  000F76  C003  F084         	movff	?___fladd+2,efgtoa@h+2
  3306  000F7A  C004  F085         	movff	?___fladd+3,efgtoa@h+3
  3307  000F7E                     
  3308                           ;C:\Program Files\Microchip\xc8\v2.20\pic\sources\c99\common\doprnt.c: 441:     u = ou;
  3309  000F7E  C060  F094         	movff	efgtoa@ou,efgtoa@u
  3310  000F82  C061  F095         	movff	efgtoa@ou+1,efgtoa@u+1
  3311  000F86  C062  F096         	movff	efgtoa@ou+2,efgtoa@u+2
  3312  000F8A  C063  F097         	movff	efgtoa@ou+3,efgtoa@u+3
  3313  000F8E                     
  3314                           ;C:\Program Files\Microchip\xc8\v2.20\pic\sources\c99\common\doprnt.c: 442:     ne = (nm
      +                          ode == 'e') ? 0 : e;
  3315  000F8E  0E65               	movlw	101
  3316  000F90  0100               	movlb	0	; () banked
  3317  000F92  197E               	xorwf	efgtoa@nmode& (0+255),w,b
  3318  000F94  B4D8               	btfsc	status,2,c
  3319  000F96  EFCF  F007         	goto	u4031
  3320  000F9A  EFD1  F007         	goto	u4030
  3321  000F9E                     u4031:
  3322  000F9E  EFD7  F007         	goto	l3364
  3323  000FA2                     u4030:
  3324  000FA2                     
  3325                           ; BSR set to: 0
  3326  000FA2  C090  F076         	movff	efgtoa@e,efgtoa@ne
  3327  000FA6  C091  F077         	movff	efgtoa@e+1,efgtoa@ne+1
  3328  000FAA  EFDB  F007         	goto	l897
  3329  000FAE                     l3364:
  3330                           
  3331                           ; BSR set to: 0
  3332  000FAE  0E00               	movlw	0
  3333  000FB0  6F77               	movwf	(efgtoa@ne+1)& (0+255),b
  3334  000FB2  0E00               	movlw	0
  3335  000FB4  6F76               	movwf	efgtoa@ne& (0+255),b
  3336  000FB6                     l897:
  3337                           
  3338                           ; BSR set to: 0
  3339                           ;C:\Program Files\Microchip\xc8\v2.20\pic\sources\c99\common\doprnt.c: 443:     pp = 0;
  3340  000FB6  0E00               	movlw	0
  3341  000FB8  6F73               	movwf	(efgtoa@pp+1)& (0+255),b
  3342  000FBA  0E00               	movlw	0
  3343  000FBC  6F72               	movwf	efgtoa@pp& (0+255),b
  3344                           
  3345                           ;C:\Program Files\Microchip\xc8\v2.20\pic\sources\c99\common\doprnt.c: 444:     t = 0;
  3346  000FBE  0E00               	movlw	0
  3347  000FC0  6F71               	movwf	(efgtoa@t+1)& (0+255),b
  3348  000FC2  0E00               	movlw	0
  3349  000FC4  6F70               	movwf	efgtoa@t& (0+255),b
  3350                           
  3351                           ;C:\Program Files\Microchip\xc8\v2.20\pic\sources\c99\common\doprnt.c: 445:     i = 0;
  3352  000FC6  0E00               	movlw	0
  3353  000FC8  6F8B               	movwf	(efgtoa@i+1)& (0+255),b
  3354  000FCA  0E00               	movlw	0
  3355  000FCC  6F8A               	movwf	efgtoa@i& (0+255),b
  3356                           
  3357                           ;C:\Program Files\Microchip\xc8\v2.20\pic\sources\c99\common\doprnt.c: 446:     while ((
      +                          i < m) && (n < (80 - 5))) {
  3358  000FCE  EFD6  F008         	goto	l3414
  3359  000FD2                     l3366:
  3360                           
  3361                           ; BSR set to: 0
  3362                           ;C:\Program Files\Microchip\xc8\v2.20\pic\sources\c99\common\doprnt.c: 447:         l = 
      +                          floorf(h/u);
  3363  000FD2  C082  F01A         	movff	efgtoa@h,___fldiv@b
  3364  000FD6  C083  F01B         	movff	efgtoa@h+1,___fldiv@b+1
  3365  000FDA  C084  F01C         	movff	efgtoa@h+2,___fldiv@b+2
  3366  000FDE  C085  F01D         	movff	efgtoa@h+3,___fldiv@b+3
  3367  000FE2  C094  F01E         	movff	efgtoa@u,___fldiv@a
  3368  000FE6  C095  F01F         	movff	efgtoa@u+1,___fldiv@a+1
  3369  000FEA  C096  F020         	movff	efgtoa@u+2,___fldiv@a+2
  3370  000FEE  C097  F021         	movff	efgtoa@u+3,___fldiv@a+3
  3371  000FF2  EC66  F00E         	call	___fldiv	;wreg free
  3372  000FF6  C01A  F033         	movff	?___fldiv,floorf@x
  3373  000FFA  C01B  F034         	movff	?___fldiv+1,floorf@x+1
  3374  000FFE  C01C  F035         	movff	?___fldiv+2,floorf@x+2
  3375  001002  C01D  F036         	movff	?___fldiv+3,floorf@x+3
  3376  001006  ECD8  F011         	call	_floorf	;wreg free
  3377  00100A  C033  F086         	movff	?_floorf,efgtoa@l
  3378  00100E  C034  F087         	movff	?_floorf+1,efgtoa@l+1
  3379  001012  C035  F088         	movff	?_floorf+2,efgtoa@l+2
  3380  001016  C036  F089         	movff	?_floorf+3,efgtoa@l+3
  3381                           
  3382                           ;C:\Program Files\Microchip\xc8\v2.20\pic\sources\c99\common\doprnt.c: 448:         d = 
      +                          (int)l;
  3383  00101A  C086  F001         	movff	efgtoa@l,___fltol@f1
  3384  00101E  C087  F002         	movff	efgtoa@l+1,___fltol@f1+1
  3385  001022  C088  F003         	movff	efgtoa@l+2,___fltol@f1+2
  3386  001026  C089  F004         	movff	efgtoa@l+3,___fltol@f1+3
  3387  00102A  EC57  F014         	call	___fltol	;wreg free
  3388  00102E  C001  F078         	movff	?___fltol,efgtoa@d
  3389  001032  C002  F079         	movff	?___fltol+1,efgtoa@d+1
  3390  001036                     
  3391                           ;C:\Program Files\Microchip\xc8\v2.20\pic\sources\c99\common\doprnt.c: 449:         if (
      +                          !(flags & (1 << 4)) && !d && (mode == 'g') && (ne < 0)) {
  3392  001036  0100               	movlb	0	; () banked
  3393  001038  B9D4               	btfsc	_flags& (0+255),4,b
  3394  00103A  EF21  F008         	goto	u4041
  3395  00103E  EF23  F008         	goto	u4040
  3396  001042                     u4041:
  3397  001042  EF40  F008         	goto	l3378
  3398  001046                     u4040:
  3399  001046                     
  3400                           ; BSR set to: 0
  3401  001046  5178               	movf	efgtoa@d& (0+255),w,b
  3402  001048  1179               	iorwf	(efgtoa@d+1)& (0+255),w,b
  3403  00104A  A4D8               	btfss	status,2,c
  3404  00104C  EF2A  F008         	goto	u4051
  3405  001050  EF2C  F008         	goto	u4050
  3406  001054                     u4051:
  3407  001054  EF40  F008         	goto	l3378
  3408  001058                     u4050:
  3409  001058                     
  3410                           ; BSR set to: 0
  3411  001058  0E67               	movlw	103
  3412  00105A  1981               	xorwf	efgtoa@mode& (0+255),w,b
  3413  00105C  A4D8               	btfss	status,2,c
  3414  00105E  EF33  F008         	goto	u4061
  3415  001062  EF35  F008         	goto	u4060
  3416  001066                     u4061:
  3417  001066  EF40  F008         	goto	l3378
  3418  00106A                     u4060:
  3419  00106A                     
  3420                           ; BSR set to: 0
  3421  00106A  BF77               	btfsc	(efgtoa@ne+1)& (0+255),7,b
  3422  00106C  EF3C  F008         	goto	u4070
  3423  001070  EF3A  F008         	goto	u4071
  3424  001074                     u4071:
  3425  001074  EF40  F008         	goto	l3378
  3426  001078                     u4070:
  3427  001078                     
  3428                           ; BSR set to: 0
  3429                           ;C:\Program Files\Microchip\xc8\v2.20\pic\sources\c99\common\doprnt.c: 450:             
      +                          ++t;
  3430  001078  4B70               	infsnz	efgtoa@t& (0+255),f,b
  3431  00107A  2B71               	incf	(efgtoa@t+1)& (0+255),f,b
  3432                           
  3433                           ;C:\Program Files\Microchip\xc8\v2.20\pic\sources\c99\common\doprnt.c: 451:         } el
      +                          se {
  3434  00107C  EF8A  F008         	goto	l3406
  3435  001080                     l3378:
  3436                           
  3437                           ; BSR set to: 0
  3438                           ;C:\Program Files\Microchip\xc8\v2.20\pic\sources\c99\common\doprnt.c: 452:             
      +                          if (!pp && (ne < 0)) {
  3439  001080  5172               	movf	efgtoa@pp& (0+255),w,b
  3440  001082  1173               	iorwf	(efgtoa@pp+1)& (0+255),w,b
  3441  001084  A4D8               	btfss	status,2,c
  3442  001086  EF47  F008         	goto	u4081
  3443  00108A  EF49  F008         	goto	u4080
  3444  00108E                     u4081:
  3445  00108E  EF73  F008         	goto	l3398
  3446  001092                     u4080:
  3447  001092                     
  3448                           ; BSR set to: 0
  3449  001092  BF77               	btfsc	(efgtoa@ne+1)& (0+255),7,b
  3450  001094  EF50  F008         	goto	u4090
  3451  001098  EF4E  F008         	goto	u4091
  3452  00109C                     u4091:
  3453  00109C  EF73  F008         	goto	l3398
  3454  0010A0                     u4090:
  3455  0010A0                     
  3456                           ; BSR set to: 0
  3457                           ;C:\Program Files\Microchip\xc8\v2.20\pic\sources\c99\common\doprnt.c: 453:             
      +                              dbuf[n++] = '.';
  3458  0010A0  0E00               	movlw	low _dbuf
  3459  0010A2  2592               	addwf	efgtoa@n& (0+255),w,b
  3460  0010A4  6ED9               	movwf	fsr2l,c
  3461  0010A6  0E01               	movlw	high _dbuf
  3462  0010A8  2193               	addwfc	(efgtoa@n+1)& (0+255),w,b
  3463  0010AA  6EDA               	movwf	fsr2h,c
  3464  0010AC  0E2E               	movlw	46
  3465  0010AE  6EDF               	movwf	indf2,c
  3466  0010B0                     
  3467                           ; BSR set to: 0
  3468  0010B0  4B92               	infsnz	efgtoa@n& (0+255),f,b
  3469  0010B2  2B93               	incf	(efgtoa@n+1)& (0+255),f,b
  3470  0010B4                     
  3471                           ; BSR set to: 0
  3472                           ;C:\Program Files\Microchip\xc8\v2.20\pic\sources\c99\common\doprnt.c: 454:             
      +                              --w;
  3473  0010B4  077F               	decf	efgtoa@w& (0+255),f,b
  3474  0010B6  A0D8               	btfss	status,0,c
  3475  0010B8  0780               	decf	(efgtoa@w+1)& (0+255),f,b
  3476  0010BA                     
  3477                           ; BSR set to: 0
  3478                           ;C:\Program Files\Microchip\xc8\v2.20\pic\sources\c99\common\doprnt.c: 455:             
      +                              pp = 1;
  3479  0010BA  0E00               	movlw	0
  3480  0010BC  6F73               	movwf	(efgtoa@pp+1)& (0+255),b
  3481  0010BE  0E01               	movlw	1
  3482  0010C0  6F72               	movwf	efgtoa@pp& (0+255),b
  3483  0010C2  EF73  F008         	goto	l3398
  3484  0010C6                     l3390:
  3485                           
  3486                           ; BSR set to: 0
  3487                           ;C:\Program Files\Microchip\xc8\v2.20\pic\sources\c99\common\doprnt.c: 458:             
      +                              dbuf[n++] = '0';
  3488  0010C6  0E00               	movlw	low _dbuf
  3489  0010C8  2592               	addwf	efgtoa@n& (0+255),w,b
  3490  0010CA  6ED9               	movwf	fsr2l,c
  3491  0010CC  0E01               	movlw	high _dbuf
  3492  0010CE  2193               	addwfc	(efgtoa@n+1)& (0+255),w,b
  3493  0010D0  6EDA               	movwf	fsr2h,c
  3494  0010D2  0E30               	movlw	48
  3495  0010D4  6EDF               	movwf	indf2,c
  3496  0010D6                     
  3497                           ; BSR set to: 0
  3498  0010D6  4B92               	infsnz	efgtoa@n& (0+255),f,b
  3499  0010D8  2B93               	incf	(efgtoa@n+1)& (0+255),f,b
  3500  0010DA                     
  3501                           ; BSR set to: 0
  3502                           ;C:\Program Files\Microchip\xc8\v2.20\pic\sources\c99\common\doprnt.c: 459:             
      +                              --w;
  3503  0010DA  077F               	decf	efgtoa@w& (0+255),f,b
  3504  0010DC  A0D8               	btfss	status,0,c
  3505  0010DE  0780               	decf	(efgtoa@w+1)& (0+255),f,b
  3506  0010E0                     
  3507                           ; BSR set to: 0
  3508                           ;C:\Program Files\Microchip\xc8\v2.20\pic\sources\c99\common\doprnt.c: 460:             
      +                              --t;
  3509  0010E0  0770               	decf	efgtoa@t& (0+255),f,b
  3510  0010E2  A0D8               	btfss	status,0,c
  3511  0010E4  0771               	decf	(efgtoa@t+1)& (0+255),f,b
  3512  0010E6                     l3398:
  3513                           
  3514                           ; BSR set to: 0
  3515                           ;C:\Program Files\Microchip\xc8\v2.20\pic\sources\c99\common\doprnt.c: 457:             
      +                          while (t) {
  3516  0010E6  5170               	movf	efgtoa@t& (0+255),w,b
  3517  0010E8  1171               	iorwf	(efgtoa@t+1)& (0+255),w,b
  3518  0010EA  A4D8               	btfss	status,2,c
  3519  0010EC  EF7A  F008         	goto	u4101
  3520  0010F0  EF7C  F008         	goto	u4100
  3521  0010F4                     u4101:
  3522  0010F4  EF63  F008         	goto	l3390
  3523  0010F8                     u4100:
  3524  0010F8                     
  3525                           ; BSR set to: 0
  3526                           ;C:\Program Files\Microchip\xc8\v2.20\pic\sources\c99\common\doprnt.c: 462:             
      +                          dbuf[n++] = '0' + d;
  3527  0010F8  0E00               	movlw	low _dbuf
  3528  0010FA  2592               	addwf	efgtoa@n& (0+255),w,b
  3529  0010FC  6ED9               	movwf	fsr2l,c
  3530  0010FE  0E01               	movlw	high _dbuf
  3531  001100  2193               	addwfc	(efgtoa@n+1)& (0+255),w,b
  3532  001102  6EDA               	movwf	fsr2h,c
  3533  001104  5178               	movf	efgtoa@d& (0+255),w,b
  3534  001106  0F30               	addlw	48
  3535  001108  6EDF               	movwf	indf2,c
  3536  00110A                     
  3537                           ; BSR set to: 0
  3538  00110A  4B92               	infsnz	efgtoa@n& (0+255),f,b
  3539  00110C  2B93               	incf	(efgtoa@n+1)& (0+255),f,b
  3540  00110E                     
  3541                           ; BSR set to: 0
  3542                           ;C:\Program Files\Microchip\xc8\v2.20\pic\sources\c99\common\doprnt.c: 463:             
      +                          --w;
  3543  00110E  077F               	decf	efgtoa@w& (0+255),f,b
  3544  001110  A0D8               	btfss	status,0,c
  3545  001112  0780               	decf	(efgtoa@w+1)& (0+255),f,b
  3546  001114                     l3406:
  3547                           
  3548                           ; BSR set to: 0
  3549                           ;C:\Program Files\Microchip\xc8\v2.20\pic\sources\c99\common\doprnt.c: 465:         h -=
      +                           l*u;
  3550  001114  C082  F01A         	movff	efgtoa@h,___flsub@b
  3551  001118  C083  F01B         	movff	efgtoa@h+1,___flsub@b+1
  3552  00111C  C084  F01C         	movff	efgtoa@h+2,___flsub@b+2
  3553  001120  C085  F01D         	movff	efgtoa@h+3,___flsub@b+3
  3554  001124  C094  F005         	movff	efgtoa@u,___flmul@a
  3555  001128  C095  F006         	movff	efgtoa@u+1,___flmul@a+1
  3556  00112C  C096  F007         	movff	efgtoa@u+2,___flmul@a+2
  3557  001130  C097  F008         	movff	efgtoa@u+3,___flmul@a+3
  3558  001134  C086  F001         	movff	efgtoa@l,___flmul@b
  3559  001138  C087  F002         	movff	efgtoa@l+1,___flmul@b+1
  3560  00113C  C088  F003         	movff	efgtoa@l+2,___flmul@b+2
  3561  001140  C089  F004         	movff	efgtoa@l+3,___flmul@b+3
  3562  001144  EC51  F00C         	call	___flmul	;wreg free
  3563  001148  C001  F01E         	movff	?___flmul,___flsub@a
  3564  00114C  C002  F01F         	movff	?___flmul+1,___flsub@a+1
  3565  001150  C003  F020         	movff	?___flmul+2,___flsub@a+2
  3566  001154  C004  F021         	movff	?___flmul+3,___flsub@a+3
  3567  001158  ECA9  F019         	call	___flsub	;wreg free
  3568  00115C  C01A  F082         	movff	?___flsub,efgtoa@h
  3569  001160  C01B  F083         	movff	?___flsub+1,efgtoa@h+1
  3570  001164  C01C  F084         	movff	?___flsub+2,efgtoa@h+2
  3571  001168  C01D  F085         	movff	?___flsub+3,efgtoa@h+3
  3572  00116C                     
  3573                           ;C:\Program Files\Microchip\xc8\v2.20\pic\sources\c99\common\doprnt.c: 466:         u = 
      +                          u/10.0;
  3574  00116C  C094  F01A         	movff	efgtoa@u,___fldiv@b
  3575  001170  C095  F01B         	movff	efgtoa@u+1,___fldiv@b+1
  3576  001174  C096  F01C         	movff	efgtoa@u+2,___fldiv@b+2
  3577  001178  C097  F01D         	movff	efgtoa@u+3,___fldiv@b+3
  3578  00117C  0E00               	movlw	0
  3579  00117E  6E1E               	movwf	___fldiv@a^0,c
  3580  001180  0E00               	movlw	0
  3581  001182  6E1F               	movwf	(___fldiv@a+1)^0,c
  3582  001184  0E20               	movlw	32
  3583  001186  6E20               	movwf	(___fldiv@a+2)^0,c
  3584  001188  0E41               	movlw	65
  3585  00118A  6E21               	movwf	(___fldiv@a+3)^0,c
  3586  00118C  EC66  F00E         	call	___fldiv	;wreg free
  3587  001190  C01A  F094         	movff	?___fldiv,efgtoa@u
  3588  001194  C01B  F095         	movff	?___fldiv+1,efgtoa@u+1
  3589  001198  C01C  F096         	movff	?___fldiv+2,efgtoa@u+2
  3590  00119C  C01D  F097         	movff	?___fldiv+3,efgtoa@u+3
  3591  0011A0                     
  3592                           ;C:\Program Files\Microchip\xc8\v2.20\pic\sources\c99\common\doprnt.c: 467:         --ne
      +                          ;
  3593  0011A0  0100               	movlb	0	; () banked
  3594  0011A2  0776               	decf	efgtoa@ne& (0+255),f,b
  3595  0011A4  A0D8               	btfss	status,0,c
  3596  0011A6  0777               	decf	(efgtoa@ne+1)& (0+255),f,b
  3597  0011A8                     
  3598                           ; BSR set to: 0
  3599                           ;C:\Program Files\Microchip\xc8\v2.20\pic\sources\c99\common\doprnt.c: 468:         ++i;
  3600  0011A8  4B8A               	infsnz	efgtoa@i& (0+255),f,b
  3601  0011AA  2B8B               	incf	(efgtoa@i+1)& (0+255),f,b
  3602  0011AC                     l3414:
  3603                           
  3604                           ; BSR set to: 0
  3605                           ;C:\Program Files\Microchip\xc8\v2.20\pic\sources\c99\common\doprnt.c: 446:     while ((
      +                          i < m) && (n < (80 - 5))) {
  3606  0011AC  5174               	movf	efgtoa@m& (0+255),w,b
  3607  0011AE  5D8A               	subwf	efgtoa@i& (0+255),w,b
  3608  0011B0  518B               	movf	(efgtoa@i+1)& (0+255),w,b
  3609  0011B2  0A80               	xorlw	128
  3610  0011B4  6E4E               	movwf	??_efgtoa^0,c
  3611  0011B6  5175               	movf	(efgtoa@m+1)& (0+255),w,b
  3612  0011B8  0A80               	xorlw	128
  3613  0011BA  584E               	subwfb	??_efgtoa^0,w,c
  3614  0011BC  B0D8               	btfsc	status,0,c
  3615  0011BE  EFE3  F008         	goto	u4111
  3616  0011C2  EFE5  F008         	goto	u4110
  3617  0011C6                     u4111:
  3618  0011C6  EFF3  F008         	goto	l3418
  3619  0011CA                     u4110:
  3620  0011CA                     
  3621                           ; BSR set to: 0
  3622  0011CA  BF93               	btfsc	(efgtoa@n+1)& (0+255),7,b
  3623  0011CC  EFF1  F008         	goto	u4121
  3624  0011D0  5193               	movf	(efgtoa@n+1)& (0+255),w,b
  3625  0011D2  E109               	bnz	u4120
  3626  0011D4  0E4B               	movlw	75
  3627  0011D6  5D92               	subwf	efgtoa@n& (0+255),w,b
  3628  0011D8  A0D8               	btfss	status,0,c
  3629  0011DA  EFF1  F008         	goto	u4121
  3630  0011DE  EFF3  F008         	goto	u4120
  3631  0011E2                     u4121:
  3632  0011E2  EFE9  F007         	goto	l3366
  3633  0011E6                     u4120:
  3634  0011E6                     l3418:
  3635                           
  3636                           ; BSR set to: 0
  3637                           ;C:\Program Files\Microchip\xc8\v2.20\pic\sources\c99\common\doprnt.c: 470:     if (!pp 
      +                          && (flags & (1 << 4))) {
  3638  0011E6  5172               	movf	efgtoa@pp& (0+255),w,b
  3639  0011E8  1173               	iorwf	(efgtoa@pp+1)& (0+255),w,b
  3640  0011EA  A4D8               	btfss	status,2,c
  3641  0011EC  EFFA  F008         	goto	u4131
  3642  0011F0  EFFC  F008         	goto	u4130
  3643  0011F4                     u4131:
  3644  0011F4  EF0D  F009         	goto	l3426
  3645  0011F8                     u4130:
  3646  0011F8                     
  3647                           ; BSR set to: 0
  3648  0011F8  A9D4               	btfss	_flags& (0+255),4,b
  3649  0011FA  EF01  F009         	goto	u4141
  3650  0011FE  EF03  F009         	goto	u4140
  3651  001202                     u4141:
  3652  001202  EF0D  F009         	goto	l3426
  3653  001206                     u4140:
  3654  001206                     
  3655                           ; BSR set to: 0
  3656                           ;C:\Program Files\Microchip\xc8\v2.20\pic\sources\c99\common\doprnt.c: 471:         dbuf
      +                          [n++] = '.';
  3657  001206  0E00               	movlw	low _dbuf
  3658  001208  2592               	addwf	efgtoa@n& (0+255),w,b
  3659  00120A  6ED9               	movwf	fsr2l,c
  3660  00120C  0E01               	movlw	high _dbuf
  3661  00120E  2193               	addwfc	(efgtoa@n+1)& (0+255),w,b
  3662  001210  6EDA               	movwf	fsr2h,c
  3663  001212  0E2E               	movlw	46
  3664  001214  6EDF               	movwf	indf2,c
  3665  001216                     
  3666                           ; BSR set to: 0
  3667  001216  4B92               	infsnz	efgtoa@n& (0+255),f,b
  3668  001218  2B93               	incf	(efgtoa@n+1)& (0+255),f,b
  3669  00121A                     l3426:
  3670                           
  3671                           ; BSR set to: 0
  3672                           ;C:\Program Files\Microchip\xc8\v2.20\pic\sources\c99\common\doprnt.c: 473:     dbuf[n] 
      +                          = '\0';
  3673  00121A  0E00               	movlw	low _dbuf
  3674  00121C  2592               	addwf	efgtoa@n& (0+255),w,b
  3675  00121E  6ED9               	movwf	fsr2l,c
  3676  001220  0E01               	movlw	high _dbuf
  3677  001222  2193               	addwfc	(efgtoa@n+1)& (0+255),w,b
  3678  001224  6EDA               	movwf	fsr2h,c
  3679  001226  0E00               	movlw	0
  3680  001228  6EDF               	movwf	indf2,c
  3681  00122A                     
  3682                           ; BSR set to: 0
  3683                           ;C:\Program Files\Microchip\xc8\v2.20\pic\sources\c99\common\doprnt.c: 476:     if (nmod
      +                          e == 'e') {
  3684  00122A  0E65               	movlw	101
  3685  00122C  197E               	xorwf	efgtoa@nmode& (0+255),w,b
  3686  00122E  A4D8               	btfss	status,2,c
  3687  001230  EF1C  F009         	goto	u4151
  3688  001234  EF1E  F009         	goto	u4150
  3689  001238                     u4151:
  3690  001238  EFCC  F004         	goto	l3238
  3691  00123C                     u4150:
  3692  00123C                     
  3693                           ; BSR set to: 0
  3694                           ;C:\Program Files\Microchip\xc8\v2.20\pic\sources\c99\common\doprnt.c: 477:         i = 
      +                          sizeof(dbuf) - 1;
  3695  00123C  0E00               	movlw	0
  3696  00123E  6F8B               	movwf	(efgtoa@i+1)& (0+255),b
  3697  001240  0E4F               	movlw	79
  3698  001242  6F8A               	movwf	efgtoa@i& (0+255),b
  3699  001244                     
  3700                           ; BSR set to: 0
  3701                           ;C:\Program Files\Microchip\xc8\v2.20\pic\sources\c99\common\doprnt.c: 478:         dbuf
      +                          [i] = '\0';
  3702  001244  0E00               	movlw	low _dbuf
  3703  001246  258A               	addwf	efgtoa@i& (0+255),w,b
  3704  001248  6ED9               	movwf	fsr2l,c
  3705  00124A  0E01               	movlw	high _dbuf
  3706  00124C  218B               	addwfc	(efgtoa@i+1)& (0+255),w,b
  3707  00124E  6EDA               	movwf	fsr2h,c
  3708  001250  0E00               	movlw	0
  3709  001252  6EDF               	movwf	indf2,c
  3710  001254                     
  3711                           ; BSR set to: 0
  3712                           ;C:\Program Files\Microchip\xc8\v2.20\pic\sources\c99\common\doprnt.c: 479:         sign
      +                           = 0;
  3713  001254  0E00               	movlw	0
  3714  001256  6F7B               	movwf	(efgtoa@sign+1)& (0+255),b
  3715  001258  0E00               	movlw	0
  3716  00125A  6F7A               	movwf	efgtoa@sign& (0+255),b
  3717  00125C                     
  3718                           ; BSR set to: 0
  3719                           ;C:\Program Files\Microchip\xc8\v2.20\pic\sources\c99\common\doprnt.c: 480:         if (
      +                          e < 0) {
  3720  00125C  BF91               	btfsc	(efgtoa@e+1)& (0+255),7,b
  3721  00125E  EF35  F009         	goto	u4160
  3722  001262  EF33  F009         	goto	u4161
  3723  001266                     u4161:
  3724  001266  EF3D  F009         	goto	l3442
  3725  00126A                     u4160:
  3726  00126A                     
  3727                           ; BSR set to: 0
  3728                           ;C:\Program Files\Microchip\xc8\v2.20\pic\sources\c99\common\doprnt.c: 481:             
      +                          sign = 1;
  3729  00126A  0E00               	movlw	0
  3730  00126C  6F7B               	movwf	(efgtoa@sign+1)& (0+255),b
  3731  00126E  0E01               	movlw	1
  3732  001270  6F7A               	movwf	efgtoa@sign& (0+255),b
  3733  001272                     
  3734                           ; BSR set to: 0
  3735                           ;C:\Program Files\Microchip\xc8\v2.20\pic\sources\c99\common\doprnt.c: 482:             
      +                          e = -e;
  3736  001272  6D90               	negf	efgtoa@e& (0+255),b
  3737  001274  1F91               	comf	(efgtoa@e+1)& (0+255),f,b
  3738  001276  B0D8               	btfsc	status,0,c
  3739  001278  2B91               	incf	(efgtoa@e+1)& (0+255),f,b
  3740  00127A                     l3442:
  3741                           
  3742                           ; BSR set to: 0
  3743                           ;C:\Program Files\Microchip\xc8\v2.20\pic\sources\c99\common\doprnt.c: 484:         p = 
      +                          2;
  3744  00127A  0E00               	movlw	0
  3745  00127C  6F7D               	movwf	(efgtoa@p+1)& (0+255),b
  3746  00127E  0E02               	movlw	2
  3747  001280  6F7C               	movwf	efgtoa@p& (0+255),b
  3748                           
  3749                           ;C:\Program Files\Microchip\xc8\v2.20\pic\sources\c99\common\doprnt.c: 485:         whil
      +                          e (e || (0 < p)) {
  3750  001282  EF6E  F009         	goto	l3454
  3751  001286                     l3444:
  3752                           
  3753                           ; BSR set to: 0
  3754                           ;C:\Program Files\Microchip\xc8\v2.20\pic\sources\c99\common\doprnt.c: 486:             
      +                          --i;
  3755  001286  078A               	decf	efgtoa@i& (0+255),f,b
  3756  001288  A0D8               	btfss	status,0,c
  3757  00128A  078B               	decf	(efgtoa@i+1)& (0+255),f,b
  3758  00128C                     
  3759                           ; BSR set to: 0
  3760                           ;C:\Program Files\Microchip\xc8\v2.20\pic\sources\c99\common\doprnt.c: 487:             
      +                          dbuf[i] = '0' + (e % 10);
  3761  00128C  0E00               	movlw	low _dbuf
  3762  00128E  258A               	addwf	efgtoa@i& (0+255),w,b
  3763  001290  6ED9               	movwf	fsr2l,c
  3764  001292  0E01               	movlw	high _dbuf
  3765  001294  218B               	addwfc	(efgtoa@i+1)& (0+255),w,b
  3766  001296  6EDA               	movwf	fsr2h,c
  3767  001298  C090  F001         	movff	efgtoa@e,___awmod@dividend
  3768  00129C  C091  F002         	movff	efgtoa@e+1,___awmod@dividend+1
  3769  0012A0  0E00               	movlw	0
  3770  0012A2  6E04               	movwf	(___awmod@divisor+1)^0,c
  3771  0012A4  0E0A               	movlw	10
  3772  0012A6  6E03               	movwf	___awmod@divisor^0,c
  3773  0012A8  EC70  F017         	call	___awmod	;wreg free
  3774  0012AC  5001               	movf	?___awmod^0,w,c
  3775  0012AE  0F30               	addlw	48
  3776  0012B0  6EDF               	movwf	indf2,c
  3777  0012B2                     
  3778                           ;C:\Program Files\Microchip\xc8\v2.20\pic\sources\c99\common\doprnt.c: 488:             
      +                          e = e / 10;
  3779  0012B2  C090  F001         	movff	efgtoa@e,___awdiv@dividend
  3780  0012B6  C091  F002         	movff	efgtoa@e+1,___awdiv@dividend+1
  3781  0012BA  0E00               	movlw	0
  3782  0012BC  6E04               	movwf	(___awdiv@divisor+1)^0,c
  3783  0012BE  0E0A               	movlw	10
  3784  0012C0  6E03               	movwf	___awdiv@divisor^0,c
  3785  0012C2  EC0E  F017         	call	___awdiv	;wreg free
  3786  0012C6  C001  F090         	movff	?___awdiv,efgtoa@e
  3787  0012CA  C002  F091         	movff	?___awdiv+1,efgtoa@e+1
  3788  0012CE                     
  3789                           ;C:\Program Files\Microchip\xc8\v2.20\pic\sources\c99\common\doprnt.c: 489:             
      +                          --p;
  3790  0012CE  0100               	movlb	0	; () banked
  3791  0012D0  077C               	decf	efgtoa@p& (0+255),f,b
  3792  0012D2  A0D8               	btfss	status,0,c
  3793  0012D4  077D               	decf	(efgtoa@p+1)& (0+255),f,b
  3794  0012D6                     
  3795                           ; BSR set to: 0
  3796                           ;C:\Program Files\Microchip\xc8\v2.20\pic\sources\c99\common\doprnt.c: 490:             
      +                          --w;
  3797  0012D6  077F               	decf	efgtoa@w& (0+255),f,b
  3798  0012D8  A0D8               	btfss	status,0,c
  3799  0012DA  0780               	decf	(efgtoa@w+1)& (0+255),f,b
  3800  0012DC                     l3454:
  3801                           
  3802                           ; BSR set to: 0
  3803                           ;C:\Program Files\Microchip\xc8\v2.20\pic\sources\c99\common\doprnt.c: 485:         whil
      +                          e (e || (0 < p)) {
  3804  0012DC  5190               	movf	efgtoa@e& (0+255),w,b
  3805  0012DE  1191               	iorwf	(efgtoa@e+1)& (0+255),w,b
  3806  0012E0  A4D8               	btfss	status,2,c
  3807  0012E2  EF75  F009         	goto	u4171
  3808  0012E6  EF77  F009         	goto	u4170
  3809  0012EA                     u4171:
  3810  0012EA  EF43  F009         	goto	l3444
  3811  0012EE                     u4170:
  3812  0012EE                     
  3813                           ; BSR set to: 0
  3814  0012EE  BF7D               	btfsc	(efgtoa@p+1)& (0+255),7,b
  3815  0012F0  EF84  F009         	goto	u4180
  3816  0012F4  517D               	movf	(efgtoa@p+1)& (0+255),w,b
  3817  0012F6  E106               	bnz	u4181
  3818  0012F8  057C               	decf	efgtoa@p& (0+255),w,b
  3819  0012FA  B0D8               	btfsc	status,0,c
  3820  0012FC  EF82  F009         	goto	u4181
  3821  001300  EF84  F009         	goto	u4180
  3822  001304                     u4181:
  3823  001304  EF43  F009         	goto	l3444
  3824  001308                     u4180:
  3825  001308                     
  3826                           ; BSR set to: 0
  3827                           ;C:\Program Files\Microchip\xc8\v2.20\pic\sources\c99\common\doprnt.c: 492:         --i;
  3828  001308  078A               	decf	efgtoa@i& (0+255),f,b
  3829  00130A  A0D8               	btfss	status,0,c
  3830  00130C  078B               	decf	(efgtoa@i+1)& (0+255),f,b
  3831  00130E                     
  3832                           ; BSR set to: 0
  3833                           ;C:\Program Files\Microchip\xc8\v2.20\pic\sources\c99\common\doprnt.c: 493:         dbuf
      +                          [i] = sign ? '-' : '+';
  3834  00130E  517A               	movf	efgtoa@sign& (0+255),w,b
  3835  001310  117B               	iorwf	(efgtoa@sign+1)& (0+255),w,b
  3836  001312  A4D8               	btfss	status,2,c
  3837  001314  EF8E  F009         	goto	u4191
  3838  001318  EF90  F009         	goto	u4190
  3839  00131C                     u4191:
  3840  00131C  EF96  F009         	goto	l3464
  3841  001320                     u4190:
  3842  001320                     
  3843                           ; BSR set to: 0
  3844  001320  0E00               	movlw	0
  3845  001322  6F6B               	movwf	(_efgtoa$984+1)& (0+255),b
  3846  001324  0E2B               	movlw	43
  3847  001326  6F6A               	movwf	_efgtoa$984& (0+255),b
  3848  001328  EF9A  F009         	goto	l3466
  3849  00132C                     l3464:
  3850                           
  3851                           ; BSR set to: 0
  3852  00132C  0E00               	movlw	0
  3853  00132E  6F6B               	movwf	(_efgtoa$984+1)& (0+255),b
  3854  001330  0E2D               	movlw	45
  3855  001332  6F6A               	movwf	_efgtoa$984& (0+255),b
  3856  001334                     l3466:
  3857                           
  3858                           ; BSR set to: 0
  3859  001334  0E00               	movlw	low _dbuf
  3860  001336  258A               	addwf	efgtoa@i& (0+255),w,b
  3861  001338  6ED9               	movwf	fsr2l,c
  3862  00133A  0E01               	movlw	high _dbuf
  3863  00133C  218B               	addwfc	(efgtoa@i+1)& (0+255),w,b
  3864  00133E  6EDA               	movwf	fsr2h,c
  3865  001340  C06A  FFDF         	movff	_efgtoa$984,indf2
  3866  001344                     
  3867                           ; BSR set to: 0
  3868                           ;C:\Program Files\Microchip\xc8\v2.20\pic\sources\c99\common\doprnt.c: 494:         --w;
  3869  001344  077F               	decf	efgtoa@w& (0+255),f,b
  3870  001346  A0D8               	btfss	status,0,c
  3871  001348  0780               	decf	(efgtoa@w+1)& (0+255),f,b
  3872  00134A                     
  3873                           ; BSR set to: 0
  3874                           ;C:\Program Files\Microchip\xc8\v2.20\pic\sources\c99\common\doprnt.c: 496:         dbuf
      +                          [i] = (0 ? isupper((int)c) : ((unsigned)((int)c)-'A') < 26) ? 'E' : 'e';
  3875  00134A  078A               	decf	efgtoa@i& (0+255),f,b
  3876  00134C  A0D8               	btfss	status,0,c
  3877  00134E  078B               	decf	(efgtoa@i+1)& (0+255),f,b
  3878  001350                     
  3879                           ; BSR set to: 0
  3880  001350  0EBF               	movlw	191
  3881  001352  6E4E               	movwf	??_efgtoa^0,c
  3882  001354  0EFF               	movlw	255
  3883  001356  6E4F               	movwf	(??_efgtoa+1)^0,c
  3884  001358  504D               	movf	efgtoa@c^0,w,c
  3885  00135A  6E50               	movwf	(??_efgtoa+2)^0,c
  3886  00135C  6A51               	clrf	(??_efgtoa+3)^0,c
  3887  00135E  504E               	movf	??_efgtoa^0,w,c
  3888  001360  2650               	addwf	(??_efgtoa+2)^0,f,c
  3889  001362  504F               	movf	(??_efgtoa+1)^0,w,c
  3890  001364  2251               	addwfc	(??_efgtoa+3)^0,f,c
  3891  001366  5051               	movf	(??_efgtoa+3)^0,w,c
  3892  001368  E10A               	bnz	u4200
  3893  00136A  0E1A               	movlw	26
  3894  00136C  5C50               	subwf	(??_efgtoa+2)^0,w,c
  3895  00136E  A0D8               	btfss	status,0,c
  3896  001370  EFBC  F009         	goto	u4201
  3897  001374  EFBF  F009         	goto	u4200
  3898  001378                     u4201:
  3899  001378  0E01               	movlw	1
  3900  00137A  EFC0  F009         	goto	u4210
  3901  00137E                     u4200:
  3902  00137E  0E00               	movlw	0
  3903  001380                     u4210:
  3904  001380  6F6E               	movwf	_efgtoa$986& (0+255),b
  3905  001382  6B6F               	clrf	(_efgtoa$986+1)& (0+255),b
  3906  001384                     
  3907                           ; BSR set to: 0
  3908  001384  516E               	movf	_efgtoa$986& (0+255),w,b
  3909  001386  116F               	iorwf	(_efgtoa$986+1)& (0+255),w,b
  3910  001388  A4D8               	btfss	status,2,c
  3911  00138A  EFC9  F009         	goto	u4221
  3912  00138E  EFCB  F009         	goto	u4220
  3913  001392                     u4221:
  3914  001392  EFD1  F009         	goto	l3480
  3915  001396                     u4220:
  3916  001396                     
  3917                           ; BSR set to: 0
  3918  001396  0E00               	movlw	0
  3919  001398  6F6D               	movwf	(_efgtoa$985+1)& (0+255),b
  3920  00139A  0E65               	movlw	101
  3921  00139C  6F6C               	movwf	_efgtoa$985& (0+255),b
  3922  00139E  EFD5  F009         	goto	l3482
  3923  0013A2                     l3480:
  3924                           
  3925                           ; BSR set to: 0
  3926  0013A2  0E00               	movlw	0
  3927  0013A4  6F6D               	movwf	(_efgtoa$985+1)& (0+255),b
  3928  0013A6  0E45               	movlw	69
  3929  0013A8  6F6C               	movwf	_efgtoa$985& (0+255),b
  3930  0013AA                     l3482:
  3931                           
  3932                           ; BSR set to: 0
  3933  0013AA  0E00               	movlw	low _dbuf
  3934  0013AC  258A               	addwf	efgtoa@i& (0+255),w,b
  3935  0013AE  6ED9               	movwf	fsr2l,c
  3936  0013B0  0E01               	movlw	high _dbuf
  3937  0013B2  218B               	addwfc	(efgtoa@i+1)& (0+255),w,b
  3938  0013B4  6EDA               	movwf	fsr2h,c
  3939  0013B6  C06C  FFDF         	movff	_efgtoa$985,indf2
  3940  0013BA                     
  3941                           ; BSR set to: 0
  3942                           ;C:\Program Files\Microchip\xc8\v2.20\pic\sources\c99\common\doprnt.c: 497:         --w;
  3943  0013BA  077F               	decf	efgtoa@w& (0+255),f,b
  3944  0013BC  A0D8               	btfss	status,0,c
  3945  0013BE  0780               	decf	(efgtoa@w+1)& (0+255),f,b
  3946  0013C0                     
  3947                           ; BSR set to: 0
  3948                           ;C:\Program Files\Microchip\xc8\v2.20\pic\sources\c99\common\doprnt.c: 498:         strc
      +                          py(&dbuf[n], &dbuf[i]);
  3949  0013C0  0E00               	movlw	low _dbuf
  3950  0013C2  2592               	addwf	efgtoa@n& (0+255),w,b
  3951  0013C4  6E01               	movwf	strcpy@dest^0,c
  3952  0013C6  0E01               	movlw	high _dbuf
  3953  0013C8  2193               	addwfc	(efgtoa@n+1)& (0+255),w,b
  3954  0013CA  6E02               	movwf	(strcpy@dest+1)^0,c
  3955  0013CC  0E00               	movlw	low _dbuf
  3956  0013CE  258A               	addwf	efgtoa@i& (0+255),w,b
  3957  0013D0  6E03               	movwf	strcpy@src^0,c
  3958  0013D2  0E01               	movlw	high _dbuf
  3959  0013D4  218B               	addwfc	(efgtoa@i+1)& (0+255),w,b
  3960  0013D6  6E04               	movwf	(strcpy@src+1)^0,c
  3961  0013D8  EC2C  F019         	call	_strcpy	;wreg free
  3962  0013DC  EFCC  F004         	goto	l3238
  3963  0013E0                     l853:
  3964  0013E0  0012               	return		;funcret
  3965  0013E2                     __end_of_efgtoa:
  3966                           	callstack 0
  3967                           
  3968 ;; *************** function _tolower *****************
  3969 ;; Defined at:
  3970 ;;		line 4 in file "C:\Program Files\Microchip\xc8\v2.20\pic\sources\c99\common\tolower.c"
  3971 ;; Parameters:    Size  Location     Type
  3972 ;;  c               2    6[COMRAM] int 
  3973 ;; Auto vars:     Size  Location     Type
  3974 ;;		None
  3975 ;; Return value:  Size  Location     Type
  3976 ;;                  2    6[COMRAM] int 
  3977 ;; Registers used:
  3978 ;;		wreg, status,2, status,0
  3979 ;; Tracked objects:
  3980 ;;		On entry : 0/0
  3981 ;;		On exit  : 0/0
  3982 ;;		Unchanged: 0/0
  3983 ;; Data sizes:     COMRAM   BANK0   BANK1   BANK2   BANK3   BANK4   BANK5   BANK6   BANK7
  3984 ;;      Params:         2       0       0       0       0       0       0       0       0
  3985 ;;      Locals:         2       0       0       0       0       0       0       0       0
  3986 ;;      Temps:          4       0       0       0       0       0       0       0       0
  3987 ;;      Totals:         8       0       0       0       0       0       0       0       0
  3988 ;;Total ram usage:        8 bytes
  3989 ;; Hardware stack levels used:    1
  3990 ;; Hardware stack levels required when called:    1
  3991 ;; This function calls:
  3992 ;;		_isupper
  3993 ;; This function is called by:
  3994 ;;		_efgtoa
  3995 ;;		_vfpfcnvrt
  3996 ;; This function uses a non-reentrant model
  3997 ;;
  3998                           
  3999                           	psect	text12
  4000  00313C                     __ptext12:
  4001                           	callstack 0
  4002  00313C                     _tolower:
  4003                           	callstack 25
  4004  00313C  0EBF               	movlw	191
  4005  00313E  6E09               	movwf	??_tolower^0,c
  4006  003140  0EFF               	movlw	255
  4007  003142  6E0A               	movwf	(??_tolower+1)^0,c
  4008  003144  C007  F00B         	movff	tolower@c,??_tolower+2
  4009  003148  C008  F00C         	movff	tolower@c+1,??_tolower+3
  4010  00314C  5009               	movf	??_tolower^0,w,c
  4011  00314E  260B               	addwf	(??_tolower+2)^0,f,c
  4012  003150  500A               	movf	(??_tolower+1)^0,w,c
  4013  003152  220C               	addwfc	(??_tolower+3)^0,f,c
  4014  003154  500C               	movf	(??_tolower+3)^0,w,c
  4015  003156  E10A               	bnz	u3580
  4016  003158  0E1A               	movlw	26
  4017  00315A  5C0B               	subwf	(??_tolower+2)^0,w,c
  4018  00315C  A0D8               	btfss	status,0,c
  4019  00315E  EFB3  F018         	goto	u3581
  4020  003162  EFB6  F018         	goto	u3580
  4021  003166                     u3581:
  4022  003166  0E01               	movlw	1
  4023  003168  EFB7  F018         	goto	u3590
  4024  00316C                     u3580:
  4025  00316C  0E00               	movlw	0
  4026  00316E                     u3590:
  4027  00316E  6E0D               	movwf	_tolower$1100^0,c
  4028  003170  6A0E               	clrf	(_tolower$1100+1)^0,c
  4029  003172  500D               	movf	_tolower$1100^0,w,c
  4030  003174  100E               	iorwf	(_tolower$1100+1)^0,w,c
  4031  003176  B4D8               	btfsc	status,2,c
  4032  003178  EFC0  F018         	goto	u3601
  4033  00317C  EFC2  F018         	goto	u3600
  4034  003180                     u3601:
  4035  003180  EFC9  F018         	goto	l1026
  4036  003184                     u3600:
  4037  003184  0E20               	movlw	32
  4038  003186  1007               	iorwf	tolower@c^0,w,c
  4039  003188  6E07               	movwf	?_tolower^0,c
  4040  00318A  5008               	movf	(tolower@c+1)^0,w,c
  4041  00318C  6E08               	movwf	(?_tolower+1)^0,c
  4042  00318E  EFCD  F018         	goto	l1031
  4043  003192                     l1026:
  4044  003192  C007  F007         	movff	tolower@c,?_tolower
  4045  003196  C008  F008         	movff	tolower@c+1,?_tolower+1
  4046  00319A                     l1031:
  4047  00319A  0012               	return		;funcret
  4048  00319C                     __end_of_tolower:
  4049                           	callstack 0
  4050                           
  4051 ;; *************** function _isupper *****************
  4052 ;; Defined at:
  4053 ;;		line 5 in file "C:\Program Files\Microchip\xc8\v2.20\pic\sources\c99\common\isupper.c"
  4054 ;; Parameters:    Size  Location     Type
  4055 ;;  c               2    0[COMRAM] int 
  4056 ;; Auto vars:     Size  Location     Type
  4057 ;;		None
  4058 ;; Return value:  Size  Location     Type
  4059 ;;                  2    0[COMRAM] int 
  4060 ;; Registers used:
  4061 ;;		wreg, status,2, status,0
  4062 ;; Tracked objects:
  4063 ;;		On entry : 0/0
  4064 ;;		On exit  : 0/0
  4065 ;;		Unchanged: 0/0
  4066 ;; Data sizes:     COMRAM   BANK0   BANK1   BANK2   BANK3   BANK4   BANK5   BANK6   BANK7
  4067 ;;      Params:         2       0       0       0       0       0       0       0       0
  4068 ;;      Locals:         0       0       0       0       0       0       0       0       0
  4069 ;;      Temps:          4       0       0       0       0       0       0       0       0
  4070 ;;      Totals:         6       0       0       0       0       0       0       0       0
  4071 ;;Total ram usage:        6 bytes
  4072 ;; Hardware stack levels used:    1
  4073 ;; This function calls:
  4074 ;;		Nothing
  4075 ;; This function is called by:
  4076 ;;		_efgtoa
  4077 ;;		_vfpfcnvrt
  4078 ;;		_tolower
  4079 ;; This function uses a non-reentrant model
  4080 ;;
  4081                           
  4082                           	psect	text13
  4083  003416                     __ptext13:
  4084                           	callstack 0
  4085  003416                     _isupper:
  4086                           	callstack 25
  4087  003416  0EBF               	movlw	191
  4088  003418  6E03               	movwf	??_isupper^0,c
  4089  00341A  0EFF               	movlw	255
  4090  00341C  6E04               	movwf	(??_isupper+1)^0,c
  4091  00341E  C001  F005         	movff	isupper@c,??_isupper+2
  4092  003422  C002  F006         	movff	isupper@c+1,??_isupper+3
  4093  003426  5003               	movf	??_isupper^0,w,c
  4094  003428  2605               	addwf	(??_isupper+2)^0,f,c
  4095  00342A  5004               	movf	(??_isupper+1)^0,w,c
  4096  00342C  2206               	addwfc	(??_isupper+3)^0,f,c
  4097  00342E  5006               	movf	(??_isupper+3)^0,w,c
  4098  003430  E10A               	bnz	u2730
  4099  003432  0E1A               	movlw	26
  4100  003434  5C05               	subwf	(??_isupper+2)^0,w,c
  4101  003436  A0D8               	btfss	status,0,c
  4102  003438  EF20  F01A         	goto	u2731
  4103  00343C  EF23  F01A         	goto	u2730
  4104  003440                     u2731:
  4105  003440  0E01               	movlw	1
  4106  003442  EF24  F01A         	goto	u2740
  4107  003446                     u2730:
  4108  003446  0E00               	movlw	0
  4109  003448                     u2740:
  4110  003448  6E01               	movwf	?_isupper^0,c
  4111  00344A  6A02               	clrf	(?_isupper+1)^0,c
  4112  00344C  0012               	return		;funcret
  4113  00344E                     __end_of_isupper:
  4114                           	callstack 0
  4115                           
  4116 ;; *************** function _strcpy *****************
  4117 ;; Defined at:
  4118 ;;		line 3 in file "C:\Program Files\Microchip\xc8\v2.20\pic\sources\c99\common\strcpy.c"
  4119 ;; Parameters:    Size  Location     Type
  4120 ;;  dest            2    0[COMRAM] PTR unsigned char 
  4121 ;;		 -> dbuf(80), 
  4122 ;;  src             2    2[COMRAM] PTR const unsigned char 
  4123 ;;		 -> STR_11(4), STR_10(4), STR_7(4), STR_6(4), 
  4124 ;;		 -> dbuf(80), 
  4125 ;; Auto vars:     Size  Location     Type
  4126 ;;  d               2    8[COMRAM] PTR unsigned char 
  4127 ;;		 -> dbuf(80), 
  4128 ;;  s               2    6[COMRAM] PTR const unsigned char 
  4129 ;;		 -> STR_11(4), STR_10(4), STR_7(4), STR_6(4), 
  4130 ;;		 -> dbuf(80), 
  4131 ;; Return value:  Size  Location     Type
  4132 ;;                  2    0[COMRAM] PTR unsigned char 
  4133 ;; Registers used:
  4134 ;;		wreg, fsr1l, fsr1h, fsr2l, fsr2h, status,2, status,0, tblptrl, tblptrh, tblptru
  4135 ;; Tracked objects:
  4136 ;;		On entry : 0/0
  4137 ;;		On exit  : 0/0
  4138 ;;		Unchanged: 0/0
  4139 ;; Data sizes:     COMRAM   BANK0   BANK1   BANK2   BANK3   BANK4   BANK5   BANK6   BANK7
  4140 ;;      Params:         4       0       0       0       0       0       0       0       0
  4141 ;;      Locals:         4       0       0       0       0       0       0       0       0
  4142 ;;      Temps:          2       0       0       0       0       0       0       0       0
  4143 ;;      Totals:        10       0       0       0       0       0       0       0       0
  4144 ;;Total ram usage:       10 bytes
  4145 ;; Hardware stack levels used:    1
  4146 ;; This function calls:
  4147 ;;		Nothing
  4148 ;; This function is called by:
  4149 ;;		_efgtoa
  4150 ;; This function uses a non-reentrant model
  4151 ;;
  4152                           
  4153                           	psect	text14
  4154  003258                     __ptext14:
  4155                           	callstack 0
  4156  003258                     _strcpy:
  4157                           	callstack 25
  4158  003258  C003  F007         	movff	strcpy@src,strcpy@s
  4159  00325C  C004  F008         	movff	strcpy@src+1,strcpy@s+1
  4160  003260  C001  F009         	movff	strcpy@dest,strcpy@d
  4161  003264  C002  F00A         	movff	strcpy@dest+1,strcpy@d+1
  4162  003268                     l3154:
  4163  003268  5007               	movf	strcpy@s^0,w,c
  4164  00326A  6E05               	movwf	??_strcpy^0,c
  4165  00326C  5008               	movf	(strcpy@s+1)^0,w,c
  4166  00326E  6E06               	movwf	(??_strcpy+1)^0,c
  4167  003270  4A07               	infsnz	strcpy@s^0,f,c
  4168  003272  2A08               	incf	(strcpy@s+1)^0,f,c
  4169  003274  C005  FFF6         	movff	??_strcpy,tblptrl
  4170  003278  C006  FFF7         	movff	??_strcpy+1,tblptrh
  4171  00327C  6AF8               	clrf	tblptru,c
  4172  00327E  C009  FFD9         	movff	strcpy@d,fsr2l
  4173  003282  C00A  FFDA         	movff	strcpy@d+1,fsr2h
  4174  003286  4A09               	infsnz	strcpy@d^0,f,c
  4175  003288  2A0A               	incf	(strcpy@d+1)^0,f,c
  4176  00328A  0E07               	movlw	(high __ramtop+-1)
  4177  00328C  64F7               	cpfsgt	tblptrh,c
  4178  00328E  D003               	bra	u3567
  4179  003290  0008               	tblrd		*
  4180  003292  50F5               	movf	tablat,w,c
  4181  003294  D005               	bra	u3560
  4182  003296                     u3567:
  4183  003296  CFF6 FFE1          	movff	tblptrl,fsr1l
  4184  00329A  CFF7 FFE2          	movff	tblptrh,fsr1h
  4185  00329E  50E7               	movf	indf1,w,c
  4186  0032A0                     u3560:
  4187  0032A0  6EDF               	movwf	indf2,c
  4188  0032A2  50DF               	movf	indf2,w,c
  4189  0032A4  A4D8               	btfss	status,2,c
  4190  0032A6  EF57  F019         	goto	u3571
  4191  0032AA  EF59  F019         	goto	u3570
  4192  0032AE                     u3571:
  4193  0032AE  EF34  F019         	goto	l3154
  4194  0032B2                     u3570:
  4195  0032B2  0012               	return		;funcret
  4196  0032B4                     __end_of_strcpy:
  4197                           	callstack 0
  4198                           
  4199 ;; *************** function _pad *****************
  4200 ;; Defined at:
  4201 ;;		line 72 in file "C:\Program Files\Microchip\xc8\v2.20\pic\sources\c99\common\doprnt.c"
  4202 ;; Parameters:    Size  Location     Type
  4203 ;;  fp              2   16[COMRAM] PTR struct _IO_FILE
  4204 ;;		 -> sprintf@f(6), 
  4205 ;;  buf             2   18[COMRAM] PTR unsigned char 
  4206 ;;		 -> dbuf(80), 
  4207 ;;  p               2   20[COMRAM] int 
  4208 ;; Auto vars:     Size  Location     Type
  4209 ;;  w               2   25[COMRAM] int 
  4210 ;;  i               2   23[COMRAM] int 
  4211 ;; Return value:  Size  Location     Type
  4212 ;;                  2   16[COMRAM] int 
  4213 ;; Registers used:
  4214 ;;		wreg, fsr1l, fsr1h, fsr2l, fsr2h, status,2, status,0, cstack
  4215 ;; Tracked objects:
  4216 ;;		On entry : 0/0
  4217 ;;		On exit  : 0/0
  4218 ;;		Unchanged: 0/0
  4219 ;; Data sizes:     COMRAM   BANK0   BANK1   BANK2   BANK3   BANK4   BANK5   BANK6   BANK7
  4220 ;;      Params:         6       0       0       0       0       0       0       0       0
  4221 ;;      Locals:         4       0       0       0       0       0       0       0       0
  4222 ;;      Temps:          1       0       0       0       0       0       0       0       0
  4223 ;;      Totals:        11       0       0       0       0       0       0       0       0
  4224 ;;Total ram usage:       11 bytes
  4225 ;; Hardware stack levels used:    1
  4226 ;; Hardware stack levels required when called:    3
  4227 ;; This function calls:
  4228 ;;		_fputc
  4229 ;;		_fputs
  4230 ;;		_strlen
  4231 ;; This function is called by:
  4232 ;;		_efgtoa
  4233 ;; This function uses a non-reentrant model
  4234 ;;
  4235                           
  4236                           	psect	text15
  4237  002D56                     __ptext15:
  4238                           	callstack 0
  4239  002D56                     _pad:
  4240                           	callstack 22
  4241  002D56                     
  4242                           ;C:\Program Files\Microchip\xc8\v2.20\pic\sources\c99\common\doprnt.c: 72: static int pa
      +                          d(FILE *fp, char *buf, int p);C:\Program Files\Microchip\xc8\v2.20\pic\sources\c99\commo
      +                          n\doprnt.c: 73: {;C:\Program Files\Microchip\xc8\v2.20\pic\sources\c99\common\doprnt.c: 
      +                          74:     int i, w;;C:\Program Files\Microchip\xc8\v2.20\pic\sources\c99\common\doprnt.c: 
      +                          77:     if (flags & (1 << 0)) {
  4243  002D56  0100               	movlb	0	; () banked
  4244  002D58  A1D4               	btfss	_flags& (0+255),0,b
  4245  002D5A  EFB1  F016         	goto	u3451
  4246  002D5E  EFB3  F016         	goto	u3450
  4247  002D62                     u3451:
  4248  002D62  EFBD  F016         	goto	l3112
  4249  002D66                     u3450:
  4250  002D66                     
  4251                           ; BSR set to: 0
  4252                           ;C:\Program Files\Microchip\xc8\v2.20\pic\sources\c99\common\doprnt.c: 78:         fputs
      +                          ((const char *)buf, fp);
  4253  002D66  C013  F00A         	movff	pad@buf,fputs@s
  4254  002D6A  C014  F00B         	movff	pad@buf+1,fputs@s+1
  4255  002D6E  C011  F00C         	movff	pad@fp,fputs@fp
  4256  002D72  C012  F00D         	movff	pad@fp+1,fputs@fp+1
  4257  002D76  ECCC  F019         	call	_fputs	;wreg free
  4258  002D7A                     l3112:
  4259                           
  4260                           ;C:\Program Files\Microchip\xc8\v2.20\pic\sources\c99\common\doprnt.c: 82:     w = (p < 
      +                          0) ? 0 : p;
  4261  002D7A  BE16               	btfsc	(pad@p+1)^0,7,c
  4262  002D7C  EFC2  F016         	goto	u3461
  4263  002D80  EFC4  F016         	goto	u3460
  4264  002D84                     u3461:
  4265  002D84  EFCA  F016         	goto	l3116
  4266  002D88                     u3460:
  4267  002D88  C015  F01A         	movff	pad@p,pad@w
  4268  002D8C  C016  F01B         	movff	pad@p+1,pad@w+1
  4269  002D90  EFCE  F016         	goto	l830
  4270  002D94                     l3116:
  4271  002D94  0E00               	movlw	0
  4272  002D96  6E1B               	movwf	(pad@w+1)^0,c
  4273  002D98  0E00               	movlw	0
  4274  002D9A  6E1A               	movwf	pad@w^0,c
  4275  002D9C                     l830:
  4276                           
  4277                           ;C:\Program Files\Microchip\xc8\v2.20\pic\sources\c99\common\doprnt.c: 83:     i = 0;
  4278  002D9C  0E00               	movlw	0
  4279  002D9E  6E19               	movwf	(pad@i+1)^0,c
  4280  002DA0  0E00               	movlw	0
  4281  002DA2  6E18               	movwf	pad@i^0,c
  4282                           
  4283                           ;C:\Program Files\Microchip\xc8\v2.20\pic\sources\c99\common\doprnt.c: 84:     while (i 
      +                          < w) {
  4284  002DA4  EFE0  F016         	goto	l3122
  4285  002DA8                     l3118:
  4286                           
  4287                           ;C:\Program Files\Microchip\xc8\v2.20\pic\sources\c99\common\doprnt.c: 85:         fputc
      +                          (' ', fp);
  4288  002DA8  0E00               	movlw	0
  4289  002DAA  6E02               	movwf	(fputc@c+1)^0,c
  4290  002DAC  0E20               	movlw	32
  4291  002DAE  6E01               	movwf	fputc@c^0,c
  4292  002DB0  C011  F003         	movff	pad@fp,fputc@fp
  4293  002DB4  C012  F004         	movff	pad@fp+1,fputc@fp+1
  4294  002DB8  EC46  F016         	call	_fputc	;wreg free
  4295  002DBC                     
  4296                           ;C:\Program Files\Microchip\xc8\v2.20\pic\sources\c99\common\doprnt.c: 86:         ++i;
  4297  002DBC  4A18               	infsnz	pad@i^0,f,c
  4298  002DBE  2A19               	incf	(pad@i+1)^0,f,c
  4299  002DC0                     l3122:
  4300                           
  4301                           ;C:\Program Files\Microchip\xc8\v2.20\pic\sources\c99\common\doprnt.c: 84:     while (i 
      +                          < w) {
  4302  002DC0  501A               	movf	pad@w^0,w,c
  4303  002DC2  5C18               	subwf	pad@i^0,w,c
  4304  002DC4  5019               	movf	(pad@i+1)^0,w,c
  4305  002DC6  0A80               	xorlw	128
  4306  002DC8  6E17               	movwf	??_pad^0,c
  4307  002DCA  501B               	movf	(pad@w+1)^0,w,c
  4308  002DCC  0A80               	xorlw	128
  4309  002DCE  5817               	subwfb	??_pad^0,w,c
  4310  002DD0  A0D8               	btfss	status,0,c
  4311  002DD2  EFED  F016         	goto	u3471
  4312  002DD6  EFEF  F016         	goto	u3470
  4313  002DDA                     u3471:
  4314  002DDA  EFD4  F016         	goto	l3118
  4315  002DDE                     u3470:
  4316  002DDE                     
  4317                           ;C:\Program Files\Microchip\xc8\v2.20\pic\sources\c99\common\doprnt.c: 90:     if (!(fla
      +                          gs & (1 << 0))) {
  4318  002DDE  0100               	movlb	0	; () banked
  4319  002DE0  B1D4               	btfsc	_flags& (0+255),0,b
  4320  002DE2  EFF5  F016         	goto	u3481
  4321  002DE6  EFF7  F016         	goto	u3480
  4322  002DEA                     u3481:
  4323  002DEA  EF01  F017         	goto	l3126
  4324  002DEE                     u3480:
  4325  002DEE                     
  4326                           ; BSR set to: 0
  4327                           ;C:\Program Files\Microchip\xc8\v2.20\pic\sources\c99\common\doprnt.c: 91:         fputs
      +                          ((const char *)buf, fp);
  4328  002DEE  C013  F00A         	movff	pad@buf,fputs@s
  4329  002DF2  C014  F00B         	movff	pad@buf+1,fputs@s+1
  4330  002DF6  C011  F00C         	movff	pad@fp,fputs@fp
  4331  002DFA  C012  F00D         	movff	pad@fp+1,fputs@fp+1
  4332  002DFE  ECCC  F019         	call	_fputs	;wreg free
  4333  002E02                     l3126:
  4334                           
  4335                           ;C:\Program Files\Microchip\xc8\v2.20\pic\sources\c99\common\doprnt.c: 94:     return st
      +                          rlen(buf) + w;
  4336  002E02  C013  F001         	movff	pad@buf,strlen@s
  4337  002E06  C014  F002         	movff	pad@buf+1,strlen@s+1
  4338  002E0A  EC43  F01A         	call	_strlen	;wreg free
  4339  002E0E  501A               	movf	pad@w^0,w,c
  4340  002E10  2401               	addwf	?_strlen^0,w,c
  4341  002E12  6E11               	movwf	?_pad^0,c
  4342  002E14  501B               	movf	(pad@w+1)^0,w,c
  4343  002E16  2002               	addwfc	(?_strlen+1)^0,w,c
  4344  002E18  6E12               	movwf	(?_pad+1)^0,c
  4345  002E1A  0012               	return		;funcret
  4346  002E1C                     __end_of_pad:
  4347                           	callstack 0
  4348                           
  4349 ;; *************** function _strlen *****************
  4350 ;; Defined at:
  4351 ;;		line 5 in file "C:\Program Files\Microchip\xc8\v2.20\pic\sources\c99\common\strlen.c"
  4352 ;; Parameters:    Size  Location     Type
  4353 ;;  s               2    0[COMRAM] PTR const unsigned char 
  4354 ;;		 -> dbuf(80), 
  4355 ;; Auto vars:     Size  Location     Type
  4356 ;;  a               2    2[COMRAM] PTR const unsigned char 
  4357 ;;		 -> dbuf(80), 
  4358 ;; Return value:  Size  Location     Type
  4359 ;;                  2    0[COMRAM] unsigned int 
  4360 ;; Registers used:
  4361 ;;		wreg, fsr2l, fsr2h, status,2, status,0
  4362 ;; Tracked objects:
  4363 ;;		On entry : 0/0
  4364 ;;		On exit  : 0/0
  4365 ;;		Unchanged: 0/0
  4366 ;; Data sizes:     COMRAM   BANK0   BANK1   BANK2   BANK3   BANK4   BANK5   BANK6   BANK7
  4367 ;;      Params:         2       0       0       0       0       0       0       0       0
  4368 ;;      Locals:         2       0       0       0       0       0       0       0       0
  4369 ;;      Temps:          0       0       0       0       0       0       0       0       0
  4370 ;;      Totals:         4       0       0       0       0       0       0       0       0
  4371 ;;Total ram usage:        4 bytes
  4372 ;; Hardware stack levels used:    1
  4373 ;; This function calls:
  4374 ;;		Nothing
  4375 ;; This function is called by:
  4376 ;;		_pad
  4377 ;; This function uses a non-reentrant model
  4378 ;;
  4379                           
  4380                           	psect	text16
  4381  003486                     __ptext16:
  4382                           	callstack 0
  4383  003486                     _strlen:
  4384                           	callstack 24
  4385  003486  C001  F003         	movff	strlen@s,strlen@a
  4386  00348A  C002  F004         	movff	strlen@s+1,strlen@a+1
  4387  00348E  EF4B  F01A         	goto	l2654
  4388  003492                     l2652:
  4389  003492  4A01               	infsnz	strlen@s^0,f,c
  4390  003494  2A02               	incf	(strlen@s+1)^0,f,c
  4391  003496                     l2654:
  4392  003496  C001  FFD9         	movff	strlen@s,fsr2l
  4393  00349A  C002  FFDA         	movff	strlen@s+1,fsr2h
  4394  00349E  50DF               	movf	indf2,w,c
  4395  0034A0  A4D8               	btfss	status,2,c
  4396  0034A2  EF55  F01A         	goto	u2721
  4397  0034A6  EF57  F01A         	goto	u2720
  4398  0034AA                     u2721:
  4399  0034AA  EF49  F01A         	goto	l2652
  4400  0034AE                     u2720:
  4401  0034AE  5003               	movf	strlen@a^0,w,c
  4402  0034B0  5C01               	subwf	strlen@s^0,w,c
  4403  0034B2  6E01               	movwf	?_strlen^0,c
  4404  0034B4  5004               	movf	(strlen@a+1)^0,w,c
  4405  0034B6  5802               	subwfb	(strlen@s+1)^0,w,c
  4406  0034B8  6E02               	movwf	(?_strlen+1)^0,c
  4407  0034BA  0012               	return		;funcret
  4408  0034BC                     __end_of_strlen:
  4409                           	callstack 0
  4410                           
  4411 ;; *************** function _fputs *****************
  4412 ;; Defined at:
  4413 ;;		line 8 in file "C:\Program Files\Microchip\xc8\v2.20\pic\sources\c99\common\nf_fputs.c"
  4414 ;; Parameters:    Size  Location     Type
  4415 ;;  s               2    9[COMRAM] PTR const unsigned char 
  4416 ;;		 -> dbuf(80), 
  4417 ;;  fp              2   11[COMRAM] PTR struct _IO_FILE
  4418 ;;		 -> sprintf@f(6), 
  4419 ;; Auto vars:     Size  Location     Type
  4420 ;;  i               2   14[COMRAM] int 
  4421 ;;  c               1   13[COMRAM] unsigned char 
  4422 ;; Return value:  Size  Location     Type
  4423 ;;                  2    9[COMRAM] int 
  4424 ;; Registers used:
  4425 ;;		wreg, fsr1l, fsr1h, fsr2l, fsr2h, status,2, status,0, cstack
  4426 ;; Tracked objects:
  4427 ;;		On entry : 0/0
  4428 ;;		On exit  : 0/0
  4429 ;;		Unchanged: 0/0
  4430 ;; Data sizes:     COMRAM   BANK0   BANK1   BANK2   BANK3   BANK4   BANK5   BANK6   BANK7
  4431 ;;      Params:         4       0       0       0       0       0       0       0       0
  4432 ;;      Locals:         3       0       0       0       0       0       0       0       0
  4433 ;;      Temps:          0       0       0       0       0       0       0       0       0
  4434 ;;      Totals:         7       0       0       0       0       0       0       0       0
  4435 ;;Total ram usage:        7 bytes
  4436 ;; Hardware stack levels used:    1
  4437 ;; Hardware stack levels required when called:    2
  4438 ;; This function calls:
  4439 ;;		_fputc
  4440 ;; This function is called by:
  4441 ;;		_pad
  4442 ;; This function uses a non-reentrant model
  4443 ;;
  4444                           
  4445                           	psect	text17
  4446  003398                     __ptext17:
  4447                           	callstack 0
  4448  003398                     _fputs:
  4449                           	callstack 22
  4450  003398  0E00               	movlw	0
  4451  00339A  6E10               	movwf	(fputs@i+1)^0,c
  4452  00339C  0E00               	movlw	0
  4453  00339E  6E0F               	movwf	fputs@i^0,c
  4454  0033A0  EFDD  F019         	goto	l2648
  4455  0033A4                     l2644:
  4456  0033A4  C00E  F001         	movff	fputs@c,fputc@c
  4457  0033A8  6A02               	clrf	(fputc@c+1)^0,c
  4458  0033AA  C00C  F003         	movff	fputs@fp,fputc@fp
  4459  0033AE  C00D  F004         	movff	fputs@fp+1,fputc@fp+1
  4460  0033B2  EC46  F016         	call	_fputc	;wreg free
  4461  0033B6  4A0F               	infsnz	fputs@i^0,f,c
  4462  0033B8  2A10               	incf	(fputs@i+1)^0,f,c
  4463  0033BA                     l2648:
  4464  0033BA  500F               	movf	fputs@i^0,w,c
  4465  0033BC  240A               	addwf	fputs@s^0,w,c
  4466  0033BE  6ED9               	movwf	fsr2l,c
  4467  0033C0  5010               	movf	(fputs@i+1)^0,w,c
  4468  0033C2  200B               	addwfc	(fputs@s+1)^0,w,c
  4469  0033C4  6EDA               	movwf	fsr2h,c
  4470  0033C6  50DF               	movf	indf2,w,c
  4471  0033C8  6E0E               	movwf	fputs@c^0,c
  4472  0033CA  500E               	movf	fputs@c^0,w,c
  4473  0033CC  A4D8               	btfss	status,2,c
  4474  0033CE  EFEB  F019         	goto	u2711
  4475  0033D2  EFED  F019         	goto	u2710
  4476  0033D6                     u2711:
  4477  0033D6  EFD2  F019         	goto	l2644
  4478  0033DA                     u2710:
  4479  0033DA  0012               	return		;funcret
  4480  0033DC                     __end_of_fputs:
  4481                           	callstack 0
  4482                           
  4483 ;; *************** function _fputc *****************
  4484 ;; Defined at:
  4485 ;;		line 8 in file "C:\Program Files\Microchip\xc8\v2.20\pic\sources\c99\common\nf_fputc.c"
  4486 ;; Parameters:    Size  Location     Type
  4487 ;;  c               2    0[COMRAM] int 
  4488 ;;  fp              2    2[COMRAM] PTR struct _IO_FILE
  4489 ;;		 -> sprintf@f(6), 
  4490 ;; Auto vars:     Size  Location     Type
  4491 ;;		None
  4492 ;; Return value:  Size  Location     Type
  4493 ;;                  2    0[COMRAM] int 
  4494 ;; Registers used:
  4495 ;;		wreg, fsr1l, fsr1h, fsr2l, fsr2h, status,2, status,0, cstack
  4496 ;; Tracked objects:
  4497 ;;		On entry : 0/0
  4498 ;;		On exit  : 0/0
  4499 ;;		Unchanged: 0/0
  4500 ;; Data sizes:     COMRAM   BANK0   BANK1   BANK2   BANK3   BANK4   BANK5   BANK6   BANK7
  4501 ;;      Params:         4       0       0       0       0       0       0       0       0
  4502 ;;      Locals:         0       0       0       0       0       0       0       0       0
  4503 ;;      Temps:          5       0       0       0       0       0       0       0       0
  4504 ;;      Totals:         9       0       0       0       0       0       0       0       0
  4505 ;;Total ram usage:        9 bytes
  4506 ;; Hardware stack levels used:    1
  4507 ;; Hardware stack levels required when called:    1
  4508 ;; This function calls:
  4509 ;;		_putch
  4510 ;; This function is called by:
  4511 ;;		_pad
  4512 ;;		_vfpfcnvrt
  4513 ;;		_fputs
  4514 ;; This function uses a non-reentrant model
  4515 ;;
  4516                           
  4517                           	psect	text18
  4518  002C8C                     __ptext18:
  4519                           	callstack 0
  4520  002C8C                     _fputc:
  4521                           	callstack 25
  4522  002C8C  5003               	movf	fputc@fp^0,w,c
  4523  002C8E  1004               	iorwf	(fputc@fp+1)^0,w,c
  4524  002C90  B4D8               	btfsc	status,2,c
  4525  002C92  EF4D  F016         	goto	u2281
  4526  002C96  EF4F  F016         	goto	u2280
  4527  002C9A                     u2281:
  4528  002C9A  EF58  F016         	goto	l2430
  4529  002C9E                     u2280:
  4530  002C9E  5003               	movf	fputc@fp^0,w,c
  4531  002CA0  1004               	iorwf	(fputc@fp+1)^0,w,c
  4532  002CA2  A4D8               	btfss	status,2,c
  4533  002CA4  EF56  F016         	goto	u2291
  4534  002CA8  EF58  F016         	goto	u2290
  4535  002CAC                     u2291:
  4536  002CAC  EF5D  F016         	goto	l2432
  4537  002CB0                     u2290:
  4538  002CB0                     l2430:
  4539  002CB0  5001               	movf	fputc@c^0,w,c
  4540  002CB2  ECB4  F01A         	call	_putch
  4541  002CB6  EFAA  F016         	goto	l989
  4542  002CBA                     l2432:
  4543  002CBA  EE20 F004          	lfsr	2,4
  4544  002CBE  5003               	movf	fputc@fp^0,w,c
  4545  002CC0  26D9               	addwf	fsr2l,f,c
  4546  002CC2  5004               	movf	(fputc@fp+1)^0,w,c
  4547  002CC4  22DA               	addwfc	fsr2h,f,c
  4548  002CC6  50DE               	movf	postinc2,w,c
  4549  002CC8  10DE               	iorwf	postinc2,w,c
  4550  002CCA  B4D8               	btfsc	status,2,c
  4551  002CCC  EF6A  F016         	goto	u2301
  4552  002CD0  EF6C  F016         	goto	u2300
  4553  002CD4                     u2301:
  4554  002CD4  EF87  F016         	goto	l2436
  4555  002CD8                     u2300:
  4556  002CD8  EE20 F004          	lfsr	2,4
  4557  002CDC  5003               	movf	fputc@fp^0,w,c
  4558  002CDE  26D9               	addwf	fsr2l,f,c
  4559  002CE0  5004               	movf	(fputc@fp+1)^0,w,c
  4560  002CE2  22DA               	addwfc	fsr2h,f,c
  4561  002CE4  EE10 F002          	lfsr	1,2
  4562  002CE8  5003               	movf	fputc@fp^0,w,c
  4563  002CEA  26E1               	addwf	fsr1l,f,c
  4564  002CEC  5004               	movf	(fputc@fp+1)^0,w,c
  4565  002CEE  22E2               	addwfc	fsr1h,f,c
  4566  002CF0  50DE               	movf	postinc2,w,c
  4567  002CF2  5CE6               	subwf	postinc1,w,c
  4568  002CF4  50E6               	movf	postinc1,w,c
  4569  002CF6  0A80               	xorlw	128
  4570  002CF8  6E09               	movwf	(??_fputc+4)^0,c
  4571  002CFA  50DE               	movf	postinc2,w,c
  4572  002CFC  0A80               	xorlw	128
  4573  002CFE  5809               	subwfb	(??_fputc+4)^0,w,c
  4574  002D00  B0D8               	btfsc	status,0,c
  4575  002D02  EF85  F016         	goto	u2311
  4576  002D06  EF87  F016         	goto	u2310
  4577  002D0A                     u2311:
  4578  002D0A  EFAA  F016         	goto	l989
  4579  002D0E                     u2310:
  4580  002D0E                     l2436:
  4581  002D0E  EE20 F002          	lfsr	2,2
  4582  002D12  5003               	movf	fputc@fp^0,w,c
  4583  002D14  26D9               	addwf	fsr2l,f,c
  4584  002D16  5004               	movf	(fputc@fp+1)^0,w,c
  4585  002D18  22DA               	addwfc	fsr2h,f,c
  4586  002D1A  CFDE F005          	movff	postinc2,??_fputc
  4587  002D1E  CFDD F006          	movff	postdec2,??_fputc+1
  4588  002D22  C003  FFD9         	movff	fputc@fp,fsr2l
  4589  002D26  C004  FFDA         	movff	fputc@fp+1,fsr2h
  4590  002D2A  CFDE F007          	movff	postinc2,??_fputc+2
  4591  002D2E  CFDD F008          	movff	postdec2,??_fputc+3
  4592  002D32  5005               	movf	??_fputc^0,w,c
  4593  002D34  2407               	addwf	(??_fputc+2)^0,w,c
  4594  002D36  6ED9               	movwf	fsr2l,c
  4595  002D38  5006               	movf	(??_fputc+1)^0,w,c
  4596  002D3A  2008               	addwfc	(??_fputc+3)^0,w,c
  4597  002D3C  6EDA               	movwf	fsr2h,c
  4598  002D3E  C001  FFDF         	movff	fputc@c,indf2
  4599  002D42  EE20 F002          	lfsr	2,2
  4600  002D46  5003               	movf	fputc@fp^0,w,c
  4601  002D48  26D9               	addwf	fsr2l,f,c
  4602  002D4A  5004               	movf	(fputc@fp+1)^0,w,c
  4603  002D4C  22DA               	addwfc	fsr2h,f,c
  4604  002D4E  2ADE               	incf	postinc2,f,c
  4605  002D50  0E00               	movlw	0
  4606  002D52  22DD               	addwfc	postdec2,f,c
  4607  002D54                     l989:
  4608  002D54  0012               	return		;funcret
  4609  002D56                     __end_of_fputc:
  4610                           	callstack 0
  4611                           
  4612 ;; *************** function _putch *****************
  4613 ;; Defined at:
  4614 ;;		line 7 in file "C:\Program Files\Microchip\xc8\v2.20\pic\sources\c99\common\putch.c"
  4615 ;; Parameters:    Size  Location     Type
  4616 ;;  c               1    wreg     unsigned char 
  4617 ;; Auto vars:     Size  Location     Type
  4618 ;;  c               1    0[COMRAM] unsigned char 
  4619 ;; Return value:  Size  Location     Type
  4620 ;;                  1    wreg      void 
  4621 ;; Registers used:
  4622 ;;		wreg
  4623 ;; Tracked objects:
  4624 ;;		On entry : 0/0
  4625 ;;		On exit  : 0/0
  4626 ;;		Unchanged: 0/0
  4627 ;; Data sizes:     COMRAM   BANK0   BANK1   BANK2   BANK3   BANK4   BANK5   BANK6   BANK7
  4628 ;;      Params:         0       0       0       0       0       0       0       0       0
  4629 ;;      Locals:         0       0       0       0       0       0       0       0       0
  4630 ;;      Temps:          0       0       0       0       0       0       0       0       0
  4631 ;;      Totals:         0       0       0       0       0       0       0       0       0
  4632 ;;Total ram usage:        0 bytes
  4633 ;; Hardware stack levels used:    1
  4634 ;; This function calls:
  4635 ;;		Nothing
  4636 ;; This function is called by:
  4637 ;;		_fputc
  4638 ;; This function uses a non-reentrant model
  4639 ;;
  4640                           
  4641                           	psect	text19
  4642  003568                     __ptext19:
  4643                           	callstack 0
  4644  003568                     _putch:
  4645                           	callstack 25
  4646  003568  0012               	return		;funcret
  4647  00356A                     __end_of_putch:
  4648                           	callstack 0
  4649                           
  4650 ;; *************** function _floorf *****************
  4651 ;; Defined at:
  4652 ;;		line 3 in file "C:\Program Files\Microchip\xc8\v2.20\pic\sources\c99\common\floorf.c"
  4653 ;; Parameters:    Size  Location     Type
  4654 ;;  x               4   50[COMRAM] float 
  4655 ;; Auto vars:     Size  Location     Type
  4656 ;;  u               4   66[COMRAM] struct .
  4657 ;;  m               4   60[COMRAM] unsigned long 
  4658 ;;  e               2   64[COMRAM] int 
  4659 ;; Return value:  Size  Location     Type
  4660 ;;                  4   50[COMRAM] float 
  4661 ;; Registers used:
  4662 ;;		wreg, status,2, status,0
  4663 ;; Tracked objects:
  4664 ;;		On entry : 0/0
  4665 ;;		On exit  : 0/0
  4666 ;;		Unchanged: 0/0
  4667 ;; Data sizes:     COMRAM   BANK0   BANK1   BANK2   BANK3   BANK4   BANK5   BANK6   BANK7
  4668 ;;      Params:         4       0       0       0       0       0       0       0       0
  4669 ;;      Locals:        10       0       0       0       0       0       0       0       0
  4670 ;;      Temps:          6       0       0       0       0       0       0       0       0
  4671 ;;      Totals:        20       0       0       0       0       0       0       0       0
  4672 ;;Total ram usage:       20 bytes
  4673 ;; Hardware stack levels used:    1
  4674 ;; This function calls:
  4675 ;;		Nothing
  4676 ;; This function is called by:
  4677 ;;		_efgtoa
  4678 ;; This function uses a non-reentrant model
  4679 ;;
  4680                           
  4681                           	psect	text20
  4682  0023B0                     __ptext20:
  4683                           	callstack 0
  4684  0023B0                     _floorf:
  4685                           	callstack 25
  4686  0023B0  C0C6  F043         	movff	floorf@F524,floorf@u
  4687  0023B4  C0C7  F044         	movff	floorf@F524+1,floorf@u+1
  4688  0023B8  C0C8  F045         	movff	floorf@F524+2,floorf@u+2
  4689  0023BC  C0C9  F046         	movff	floorf@F524+3,floorf@u+3
  4690  0023C0  C033  F043         	movff	floorf@x,floorf@u
  4691  0023C4  C034  F044         	movff	floorf@x+1,floorf@u+1
  4692  0023C8  C035  F045         	movff	floorf@x+2,floorf@u+2
  4693  0023CC  C036  F046         	movff	floorf@x+3,floorf@u+3
  4694  0023D0  0E81               	movlw	129
  4695  0023D2  6E37               	movwf	??_floorf^0,c
  4696  0023D4  0EFF               	movlw	255
  4697  0023D6  6E38               	movwf	(??_floorf+1)^0,c
  4698  0023D8  C043  F039         	movff	floorf@u,??_floorf+2
  4699  0023DC  C044  F03A         	movff	floorf@u+1,??_floorf+3
  4700  0023E0  C045  F03B         	movff	floorf@u+2,??_floorf+4
  4701  0023E4  C046  F03C         	movff	floorf@u+3,??_floorf+5
  4702  0023E8  0E18               	movlw	24
  4703  0023EA  EFFC  F011         	goto	u3610
  4704  0023EE                     u3615:
  4705  0023EE  90D8               	bcf	status,0,c
  4706  0023F0  323C               	rrcf	(??_floorf+5)^0,f,c
  4707  0023F2  323B               	rrcf	(??_floorf+4)^0,f,c
  4708  0023F4  323A               	rrcf	(??_floorf+3)^0,f,c
  4709  0023F6  3239               	rrcf	(??_floorf+2)^0,f,c
  4710  0023F8                     u3610:
  4711  0023F8  2EE8               	decfsz	wreg,f,c
  4712  0023FA  EFF7  F011         	goto	u3615
  4713  0023FE  5039               	movf	(??_floorf+2)^0,w,c
  4714  002400  2437               	addwf	??_floorf^0,w,c
  4715  002402  6E41               	movwf	floorf@e^0,c
  4716  002404  0E00               	movlw	0
  4717  002406  2038               	addwfc	(??_floorf+1)^0,w,c
  4718  002408  6E42               	movwf	(floorf@e+1)^0,c
  4719  00240A  BE42               	btfsc	(floorf@e+1)^0,7,c
  4720  00240C  EF11  F012         	goto	u3621
  4721  002410  5042               	movf	(floorf@e+1)^0,w,c
  4722  002412  E109               	bnz	u3620
  4723  002414  0E17               	movlw	23
  4724  002416  5C41               	subwf	floorf@e^0,w,c
  4725  002418  A0D8               	btfss	status,0,c
  4726  00241A  EF11  F012         	goto	u3621
  4727  00241E  EF13  F012         	goto	u3620
  4728  002422                     u3621:
  4729  002422  EF1D  F012         	goto	l3172
  4730  002426                     u3620:
  4731  002426                     l3170:
  4732  002426  C033  F033         	movff	floorf@x,?_floorf
  4733  00242A  C034  F034         	movff	floorf@x+1,?_floorf+1
  4734  00242E  C035  F035         	movff	floorf@x+2,?_floorf+2
  4735  002432  C036  F036         	movff	floorf@x+3,?_floorf+3
  4736  002436  EFE0  F012         	goto	l964
  4737  00243A                     l3172:
  4738  00243A  BE42               	btfsc	(floorf@e+1)^0,7,c
  4739  00243C  EF22  F012         	goto	u3631
  4740  002440  EF24  F012         	goto	u3630
  4741  002444                     u3631:
  4742  002444  EF94  F012         	goto	l3182
  4743  002448                     u3630:
  4744  002448  C041  F037         	movff	floorf@e,??_floorf
  4745  00244C  0EFF               	movlw	255
  4746  00244E  6E38               	movwf	(??_floorf+1)^0,c
  4747  002450  0EFF               	movlw	255
  4748  002452  6E39               	movwf	(??_floorf+2)^0,c
  4749  002454  0E7F               	movlw	127
  4750  002456  6E3A               	movwf	(??_floorf+3)^0,c
  4751  002458  0E00               	movlw	0
  4752  00245A  6E3B               	movwf	(??_floorf+4)^0,c
  4753  00245C                     u3645:
  4754  00245C  6637               	tstfsz	??_floorf^0,c
  4755  00245E  EF33  F012         	goto	u3646
  4756  002462  EF3B  F012         	goto	u3647
  4757  002466                     u3646:
  4758  002466  343B               	rlcf	(??_floorf+4)^0,w,c
  4759  002468  323B               	rrcf	(??_floorf+4)^0,f,c
  4760  00246A  323A               	rrcf	(??_floorf+3)^0,f,c
  4761  00246C  3239               	rrcf	(??_floorf+2)^0,f,c
  4762  00246E  3238               	rrcf	(??_floorf+1)^0,f,c
  4763  002470  2E37               	decfsz	??_floorf^0,f,c
  4764  002472  EF2E  F012         	goto	u3645
  4765  002476                     u3647:
  4766  002476  C038  F03D         	movff	??_floorf+1,floorf@m
  4767  00247A  C039  F03E         	movff	??_floorf+2,floorf@m+1
  4768  00247E  C03A  F03F         	movff	??_floorf+3,floorf@m+2
  4769  002482  C03B  F040         	movff	??_floorf+4,floorf@m+3
  4770  002486  503D               	movf	floorf@m^0,w,c
  4771  002488  1443               	andwf	floorf@u^0,w,c
  4772  00248A  6E37               	movwf	??_floorf^0,c
  4773  00248C  503E               	movf	(floorf@m+1)^0,w,c
  4774  00248E  1444               	andwf	(floorf@u+1)^0,w,c
  4775  002490  6E38               	movwf	(??_floorf+1)^0,c
  4776  002492  503F               	movf	(floorf@m+2)^0,w,c
  4777  002494  1445               	andwf	(floorf@u+2)^0,w,c
  4778  002496  6E39               	movwf	(??_floorf+2)^0,c
  4779  002498  5040               	movf	(floorf@m+3)^0,w,c
  4780  00249A  1446               	andwf	(floorf@u+3)^0,w,c
  4781  00249C  6E3A               	movwf	(??_floorf+3)^0,c
  4782  00249E  5037               	movf	??_floorf^0,w,c
  4783  0024A0  1038               	iorwf	(??_floorf+1)^0,w,c
  4784  0024A2  1039               	iorwf	(??_floorf+2)^0,w,c
  4785  0024A4  103A               	iorwf	(??_floorf+3)^0,w,c
  4786  0024A6  A4D8               	btfss	status,2,c
  4787  0024A8  EF58  F012         	goto	u3651
  4788  0024AC  EF5A  F012         	goto	u3650
  4789  0024B0                     u3651:
  4790  0024B0  EF5C  F012         	goto	l3178
  4791  0024B4                     u3650:
  4792  0024B4  EF13  F012         	goto	l3170
  4793  0024B8                     l3178:
  4794  0024B8  C043  F037         	movff	floorf@u,??_floorf
  4795  0024BC  C044  F038         	movff	floorf@u+1,??_floorf+1
  4796  0024C0  C045  F039         	movff	floorf@u+2,??_floorf+2
  4797  0024C4  C046  F03A         	movff	floorf@u+3,??_floorf+3
  4798  0024C8  0E20               	movlw	32
  4799  0024CA  EF6C  F012         	goto	u3660
  4800  0024CE                     u3665:
  4801  0024CE  90D8               	bcf	status,0,c
  4802  0024D0  323A               	rrcf	(??_floorf+3)^0,f,c
  4803  0024D2  3239               	rrcf	(??_floorf+2)^0,f,c
  4804  0024D4  3238               	rrcf	(??_floorf+1)^0,f,c
  4805  0024D6  3237               	rrcf	??_floorf^0,f,c
  4806  0024D8                     u3660:
  4807  0024D8  2EE8               	decfsz	wreg,f,c
  4808  0024DA  EF67  F012         	goto	u3665
  4809  0024DE  5037               	movf	??_floorf^0,w,c
  4810  0024E0  1038               	iorwf	(??_floorf+1)^0,w,c
  4811  0024E2  1039               	iorwf	(??_floorf+2)^0,w,c
  4812  0024E4  103A               	iorwf	(??_floorf+3)^0,w,c
  4813  0024E6  B4D8               	btfsc	status,2,c
  4814  0024E8  EF78  F012         	goto	u3671
  4815  0024EC  EF7A  F012         	goto	u3670
  4816  0024F0                     u3671:
  4817  0024F0  EF82  F012         	goto	l967
  4818  0024F4                     u3670:
  4819  0024F4  503D               	movf	floorf@m^0,w,c
  4820  0024F6  2643               	addwf	floorf@u^0,f,c
  4821  0024F8  503E               	movf	(floorf@m+1)^0,w,c
  4822  0024FA  2244               	addwfc	(floorf@u+1)^0,f,c
  4823  0024FC  503F               	movf	(floorf@m+2)^0,w,c
  4824  0024FE  2245               	addwfc	(floorf@u+2)^0,f,c
  4825  002500  5040               	movf	(floorf@m+3)^0,w,c
  4826  002502  2246               	addwfc	(floorf@u+3)^0,f,c
  4827  002504                     l967:
  4828  002504  1C3D               	comf	floorf@m^0,w,c
  4829  002506  6E37               	movwf	??_floorf^0,c
  4830  002508  1C3E               	comf	(floorf@m+1)^0,w,c
  4831  00250A  6E38               	movwf	(??_floorf+1)^0,c
  4832  00250C  1C3F               	comf	(floorf@m+2)^0,w,c
  4833  00250E  6E39               	movwf	(??_floorf+2)^0,c
  4834  002510  1C40               	comf	(floorf@m+3)^0,w,c
  4835  002512  6E3A               	movwf	(??_floorf+3)^0,c
  4836  002514  5037               	movf	??_floorf^0,w,c
  4837  002516  1643               	andwf	floorf@u^0,f,c
  4838  002518  5038               	movf	(??_floorf+1)^0,w,c
  4839  00251A  1644               	andwf	(floorf@u+1)^0,f,c
  4840  00251C  5039               	movf	(??_floorf+2)^0,w,c
  4841  00251E  1645               	andwf	(floorf@u+2)^0,f,c
  4842  002520  503A               	movf	(??_floorf+3)^0,w,c
  4843  002522  1646               	andwf	(floorf@u+3)^0,f,c
  4844  002524  EFD8  F012         	goto	l3190
  4845  002528                     l3182:
  4846  002528  C043  F037         	movff	floorf@u,??_floorf
  4847  00252C  C044  F038         	movff	floorf@u+1,??_floorf+1
  4848  002530  C045  F039         	movff	floorf@u+2,??_floorf+2
  4849  002534  C046  F03A         	movff	floorf@u+3,??_floorf+3
  4850  002538  0E20               	movlw	32
  4851  00253A  EFA4  F012         	goto	u3680
  4852  00253E                     u3685:
  4853  00253E  90D8               	bcf	status,0,c
  4854  002540  323A               	rrcf	(??_floorf+3)^0,f,c
  4855  002542  3239               	rrcf	(??_floorf+2)^0,f,c
  4856  002544  3238               	rrcf	(??_floorf+1)^0,f,c
  4857  002546  3237               	rrcf	??_floorf^0,f,c
  4858  002548                     u3680:
  4859  002548  2EE8               	decfsz	wreg,f,c
  4860  00254A  EF9F  F012         	goto	u3685
  4861  00254E  5037               	movf	??_floorf^0,w,c
  4862  002550  1038               	iorwf	(??_floorf+1)^0,w,c
  4863  002552  1039               	iorwf	(??_floorf+2)^0,w,c
  4864  002554  103A               	iorwf	(??_floorf+3)^0,w,c
  4865  002556  A4D8               	btfss	status,2,c
  4866  002558  EFB0  F012         	goto	u3691
  4867  00255C  EFB2  F012         	goto	u3690
  4868  002560                     u3691:
  4869  002560  EFBC  F012         	goto	l3186
  4870  002564                     u3690:
  4871  002564  0E00               	movlw	0
  4872  002566  6E43               	movwf	floorf@u^0,c
  4873  002568  0E00               	movlw	0
  4874  00256A  6E44               	movwf	(floorf@u+1)^0,c
  4875  00256C  0E00               	movlw	0
  4876  00256E  6E45               	movwf	(floorf@u+2)^0,c
  4877  002570  0E00               	movlw	0
  4878  002572  6E46               	movwf	(floorf@u+3)^0,c
  4879  002574  EFD8  F012         	goto	l3190
  4880  002578                     l3186:
  4881  002578  90D8               	bcf	status,0,c
  4882  00257A  3443               	rlcf	floorf@u^0,w,c
  4883  00257C  6E37               	movwf	??_floorf^0,c
  4884  00257E  3444               	rlcf	(floorf@u+1)^0,w,c
  4885  002580  6E38               	movwf	(??_floorf+1)^0,c
  4886  002582  3445               	rlcf	(floorf@u+2)^0,w,c
  4887  002584  6E39               	movwf	(??_floorf+2)^0,c
  4888  002586  3446               	rlcf	(floorf@u+3)^0,w,c
  4889  002588  6E3A               	movwf	(??_floorf+3)^0,c
  4890  00258A  5037               	movf	??_floorf^0,w,c
  4891  00258C  1038               	iorwf	(??_floorf+1)^0,w,c
  4892  00258E  1039               	iorwf	(??_floorf+2)^0,w,c
  4893  002590  103A               	iorwf	(??_floorf+3)^0,w,c
  4894  002592  B4D8               	btfsc	status,2,c
  4895  002594  EFCE  F012         	goto	u3701
  4896  002598  EFD0  F012         	goto	u3700
  4897  00259C                     u3701:
  4898  00259C  EFD8  F012         	goto	l3190
  4899  0025A0                     u3700:
  4900  0025A0  0E00               	movlw	0
  4901  0025A2  6E43               	movwf	floorf@u^0,c
  4902  0025A4  0E00               	movlw	0
  4903  0025A6  6E44               	movwf	(floorf@u+1)^0,c
  4904  0025A8  0E80               	movlw	128
  4905  0025AA  6E45               	movwf	(floorf@u+2)^0,c
  4906  0025AC  0EBF               	movlw	191
  4907  0025AE  6E46               	movwf	(floorf@u+3)^0,c
  4908  0025B0                     l3190:
  4909  0025B0  C043  F033         	movff	floorf@u,?_floorf
  4910  0025B4  C044  F034         	movff	floorf@u+1,?_floorf+1
  4911  0025B8  C045  F035         	movff	floorf@u+2,?_floorf+2
  4912  0025BC  C046  F036         	movff	floorf@u+3,?_floorf+3
  4913  0025C0                     l964:
  4914  0025C0  0012               	return		;funcret
  4915  0025C2                     __end_of_floorf:
  4916                           	callstack 0
  4917                           
  4918 ;; *************** function ___fpclassifyf *****************
  4919 ;; Defined at:
  4920 ;;		line 4 in file "C:\Program Files\Microchip\xc8\v2.20\pic\sources\c99\common\__fpclassifyf.c"
  4921 ;; Parameters:    Size  Location     Type
  4922 ;;  x               4    0[COMRAM] float 
  4923 ;; Auto vars:     Size  Location     Type
  4924 ;;  u               4   10[COMRAM] struct .
  4925 ;;  e               2    8[COMRAM] int 
  4926 ;; Return value:  Size  Location     Type
  4927 ;;                  2    0[COMRAM] int 
  4928 ;; Registers used:
  4929 ;;		wreg, status,2, status,0
  4930 ;; Tracked objects:
  4931 ;;		On entry : 0/0
  4932 ;;		On exit  : 0/0
  4933 ;;		Unchanged: 0/0
  4934 ;; Data sizes:     COMRAM   BANK0   BANK1   BANK2   BANK3   BANK4   BANK5   BANK6   BANK7
  4935 ;;      Params:         4       0       0       0       0       0       0       0       0
  4936 ;;      Locals:         6       0       0       0       0       0       0       0       0
  4937 ;;      Temps:          4       0       0       0       0       0       0       0       0
  4938 ;;      Totals:        14       0       0       0       0       0       0       0       0
  4939 ;;Total ram usage:       14 bytes
  4940 ;; Hardware stack levels used:    1
  4941 ;; This function calls:
  4942 ;;		Nothing
  4943 ;; This function is called by:
  4944 ;;		_efgtoa
  4945 ;; This function uses a non-reentrant model
  4946 ;;
  4947                           
  4948                           	psect	text21
  4949  002AB8                     __ptext21:
  4950                           	callstack 0
  4951  002AB8                     ___fpclassifyf:
  4952                           	callstack 25
  4953  002AB8  C0CA  F00B         	movff	___fpclassifyf@F463,___fpclassifyf@u
  4954  002ABC  C0CB  F00C         	movff	___fpclassifyf@F463+1,___fpclassifyf@u+1
  4955  002AC0  C0CC  F00D         	movff	___fpclassifyf@F463+2,___fpclassifyf@u+2
  4956  002AC4  C0CD  F00E         	movff	___fpclassifyf@F463+3,___fpclassifyf@u+3
  4957  002AC8  C001  F00B         	movff	___fpclassifyf@x,___fpclassifyf@u
  4958  002ACC  C002  F00C         	movff	___fpclassifyf@x+1,___fpclassifyf@u+1
  4959  002AD0  C003  F00D         	movff	___fpclassifyf@x+2,___fpclassifyf@u+2
  4960  002AD4  C004  F00E         	movff	___fpclassifyf@x+3,___fpclassifyf@u+3
  4961  002AD8  C00B  F005         	movff	___fpclassifyf@u,??___fpclassifyf
  4962  002ADC  C00C  F006         	movff	___fpclassifyf@u+1,??___fpclassifyf+1
  4963  002AE0  C00D  F007         	movff	___fpclassifyf@u+2,??___fpclassifyf+2
  4964  002AE4  C00E  F008         	movff	___fpclassifyf@u+3,??___fpclassifyf+3
  4965  002AE8  0E18               	movlw	24
  4966  002AEA  EF7C  F015         	goto	u3490
  4967  002AEE                     u3495:
  4968  002AEE  90D8               	bcf	status,0,c
  4969  002AF0  3208               	rrcf	(??___fpclassifyf+3)^0,f,c
  4970  002AF2  3207               	rrcf	(??___fpclassifyf+2)^0,f,c
  4971  002AF4  3206               	rrcf	(??___fpclassifyf+1)^0,f,c
  4972  002AF6  3205               	rrcf	??___fpclassifyf^0,f,c
  4973  002AF8                     u3490:
  4974  002AF8  2EE8               	decfsz	wreg,f,c
  4975  002AFA  EF77  F015         	goto	u3495
  4976  002AFE  5005               	movf	??___fpclassifyf^0,w,c
  4977  002B00  6E09               	movwf	___fpclassifyf@e^0,c
  4978  002B02  6A0A               	clrf	(___fpclassifyf@e+1)^0,c
  4979  002B04  5009               	movf	___fpclassifyf@e^0,w,c
  4980  002B06  100A               	iorwf	(___fpclassifyf@e+1)^0,w,c
  4981  002B08  A4D8               	btfss	status,2,c
  4982  002B0A  EF89  F015         	goto	u3501
  4983  002B0E  EF8B  F015         	goto	u3500
  4984  002B12                     u3501:
  4985  002B12  EFAB  F015         	goto	l3142
  4986  002B16                     u3500:
  4987  002B16  90D8               	bcf	status,0,c
  4988  002B18  340B               	rlcf	___fpclassifyf@u^0,w,c
  4989  002B1A  6E05               	movwf	??___fpclassifyf^0,c
  4990  002B1C  340C               	rlcf	(___fpclassifyf@u+1)^0,w,c
  4991  002B1E  6E06               	movwf	(??___fpclassifyf+1)^0,c
  4992  002B20  340D               	rlcf	(___fpclassifyf@u+2)^0,w,c
  4993  002B22  6E07               	movwf	(??___fpclassifyf+2)^0,c
  4994  002B24  340E               	rlcf	(___fpclassifyf@u+3)^0,w,c
  4995  002B26  6E08               	movwf	(??___fpclassifyf+3)^0,c
  4996  002B28  5005               	movf	??___fpclassifyf^0,w,c
  4997  002B2A  1006               	iorwf	(??___fpclassifyf+1)^0,w,c
  4998  002B2C  1007               	iorwf	(??___fpclassifyf+2)^0,w,c
  4999  002B2E  1008               	iorwf	(??___fpclassifyf+3)^0,w,c
  5000  002B30  A4D8               	btfss	status,2,c
  5001  002B32  EF9D  F015         	goto	u3511
  5002  002B36  EF9F  F015         	goto	u3510
  5003  002B3A                     u3511:
  5004  002B3A  EFA5  F015         	goto	l3138
  5005  002B3E                     u3510:
  5006  002B3E  0E00               	movlw	0
  5007  002B40  6E02               	movwf	(?___fpclassifyf+1)^0,c
  5008  002B42  0E02               	movlw	2
  5009  002B44  6E01               	movwf	?___fpclassifyf^0,c
  5010  002B46  EFDA  F015         	goto	l957
  5011  002B4A                     l3138:
  5012  002B4A  0E00               	movlw	0
  5013  002B4C  6E02               	movwf	(?___fpclassifyf+1)^0,c
  5014  002B4E  0E03               	movlw	3
  5015  002B50  6E01               	movwf	?___fpclassifyf^0,c
  5016  002B52  EFDA  F015         	goto	l957
  5017  002B56                     l3142:
  5018  002B56  2809               	incf	___fpclassifyf@e^0,w,c
  5019  002B58  100A               	iorwf	(___fpclassifyf@e+1)^0,w,c
  5020  002B5A  A4D8               	btfss	status,2,c
  5021  002B5C  EFB2  F015         	goto	u3521
  5022  002B60  EFB4  F015         	goto	u3520
  5023  002B64                     u3521:
  5024  002B64  EFD6  F015         	goto	l3148
  5025  002B68                     u3520:
  5026  002B68  C00B  F005         	movff	___fpclassifyf@u,??___fpclassifyf
  5027  002B6C  C00C  F006         	movff	___fpclassifyf@u+1,??___fpclassifyf+1
  5028  002B70  C00D  F007         	movff	___fpclassifyf@u+2,??___fpclassifyf+2
  5029  002B74  C00E  F008         	movff	___fpclassifyf@u+3,??___fpclassifyf+3
  5030  002B78  0E09               	movlw	9
  5031  002B7A                     u3535:
  5032  002B7A  90D8               	bcf	status,0,c
  5033  002B7C  3605               	rlcf	??___fpclassifyf^0,f,c
  5034  002B7E  3606               	rlcf	(??___fpclassifyf+1)^0,f,c
  5035  002B80  3607               	rlcf	(??___fpclassifyf+2)^0,f,c
  5036  002B82  3608               	rlcf	(??___fpclassifyf+3)^0,f,c
  5037  002B84  2EE8               	decfsz	wreg,f,c
  5038  002B86  EFBD  F015         	goto	u3535
  5039  002B8A  5005               	movf	??___fpclassifyf^0,w,c
  5040  002B8C  1006               	iorwf	(??___fpclassifyf+1)^0,w,c
  5041  002B8E  1007               	iorwf	(??___fpclassifyf+2)^0,w,c
  5042  002B90  1008               	iorwf	(??___fpclassifyf+3)^0,w,c
  5043  002B92  B4D8               	btfsc	status,2,c
  5044  002B94  EFCE  F015         	goto	u3541
  5045  002B98  EFD1  F015         	goto	u3540
  5046  002B9C                     u3541:
  5047  002B9C  0E01               	movlw	1
  5048  002B9E  EFD2  F015         	goto	u3550
  5049  002BA2                     u3540:
  5050  002BA2  0E00               	movlw	0
  5051  002BA4                     u3550:
  5052  002BA4  6E01               	movwf	?___fpclassifyf^0,c
  5053  002BA6  6A02               	clrf	(?___fpclassifyf+1)^0,c
  5054  002BA8  EFDA  F015         	goto	l957
  5055  002BAC                     l3148:
  5056  002BAC  0E00               	movlw	0
  5057  002BAE  6E02               	movwf	(?___fpclassifyf+1)^0,c
  5058  002BB0  0E04               	movlw	4
  5059  002BB2  6E01               	movwf	?___fpclassifyf^0,c
  5060  002BB4                     l957:
  5061  002BB4  0012               	return		;funcret
  5062  002BB6                     __end_of___fpclassifyf:
  5063                           	callstack 0
  5064                           
  5065 ;; *************** function ___fltol *****************
  5066 ;; Defined at:
  5067 ;;		line 43 in file "C:\Program Files\Microchip\xc8\v2.20\pic\sources\c99\common\fltol.c"
  5068 ;; Parameters:    Size  Location     Type
  5069 ;;  f1              4    0[COMRAM] int 
  5070 ;; Auto vars:     Size  Location     Type
  5071 ;;  exp1            1    9[COMRAM] unsigned char 
  5072 ;;  sign1           1    8[COMRAM] unsigned char 
  5073 ;; Return value:  Size  Location     Type
  5074 ;;                  4    0[COMRAM] long 
  5075 ;; Registers used:
  5076 ;;		wreg, status,2, status,0
  5077 ;; Tracked objects:
  5078 ;;		On entry : 0/0
  5079 ;;		On exit  : 0/0
  5080 ;;		Unchanged: 0/0
  5081 ;; Data sizes:     COMRAM   BANK0   BANK1   BANK2   BANK3   BANK4   BANK5   BANK6   BANK7
  5082 ;;      Params:         4       0       0       0       0       0       0       0       0
  5083 ;;      Locals:         2       0       0       0       0       0       0       0       0
  5084 ;;      Temps:          4       0       0       0       0       0       0       0       0
  5085 ;;      Totals:        10       0       0       0       0       0       0       0       0
  5086 ;;Total ram usage:       10 bytes
  5087 ;; Hardware stack levels used:    1
  5088 ;; This function calls:
  5089 ;;		Nothing
  5090 ;; This function is called by:
  5091 ;;		_Ciclo_Util
  5092 ;;		_efgtoa
  5093 ;; This function uses a non-reentrant model
  5094 ;;
  5095                           
  5096                           	psect	text22
  5097  0028AE                     __ptext22:
  5098                           	callstack 0
  5099  0028AE                     ___fltol:
  5100                           	callstack 25
  5101  0028AE  3403               	rlcf	(___fltol@f1+2)^0,w,c
  5102  0028B0  3404               	rlcf	(___fltol@f1+3)^0,w,c
  5103  0028B2  6E0A               	movwf	___fltol@exp1^0,c
  5104  0028B4  500A               	movf	___fltol@exp1^0,w,c
  5105  0028B6  A4D8               	btfss	status,2,c
  5106  0028B8  EF60  F014         	goto	u3381
  5107  0028BC  EF62  F014         	goto	u3380
  5108  0028C0                     u3381:
  5109  0028C0  EF6C  F014         	goto	l3070
  5110  0028C4                     u3380:
  5111  0028C4                     l3066:
  5112  0028C4  0E00               	movlw	0
  5113  0028C6  6E01               	movwf	?___fltol^0,c
  5114  0028C8  0E00               	movlw	0
  5115  0028CA  6E02               	movwf	(?___fltol+1)^0,c
  5116  0028CC  0E00               	movlw	0
  5117  0028CE  6E03               	movwf	(?___fltol+2)^0,c
  5118  0028D0  0E00               	movlw	0
  5119  0028D2  6E04               	movwf	(?___fltol+3)^0,c
  5120  0028D4  EFD9  F014         	goto	l412
  5121  0028D8                     l3070:
  5122  0028D8  C001  F005         	movff	___fltol@f1,??___fltol
  5123  0028DC  C002  F006         	movff	___fltol@f1+1,??___fltol+1
  5124  0028E0  C003  F007         	movff	___fltol@f1+2,??___fltol+2
  5125  0028E4  C004  F008         	movff	___fltol@f1+3,??___fltol+3
  5126  0028E8  0E20               	movlw	32
  5127  0028EA  EF7C  F014         	goto	u3390
  5128  0028EE                     u3395:
  5129  0028EE  90D8               	bcf	status,0,c
  5130  0028F0  3208               	rrcf	(??___fltol+3)^0,f,c
  5131  0028F2  3207               	rrcf	(??___fltol+2)^0,f,c
  5132  0028F4  3206               	rrcf	(??___fltol+1)^0,f,c
  5133  0028F6  3205               	rrcf	??___fltol^0,f,c
  5134  0028F8                     u3390:
  5135  0028F8  2EE8               	decfsz	wreg,f,c
  5136  0028FA  EF77  F014         	goto	u3395
  5137  0028FE  5005               	movf	??___fltol^0,w,c
  5138  002900  6E09               	movwf	___fltol@sign1^0,c
  5139  002902  8E03               	bsf	(___fltol@f1+2)^0,7,c
  5140  002904  0EFF               	movlw	255
  5141  002906  1601               	andwf	___fltol@f1^0,f,c
  5142  002908  0EFF               	movlw	255
  5143  00290A  1602               	andwf	(___fltol@f1+1)^0,f,c
  5144  00290C  0EFF               	movlw	255
  5145  00290E  1603               	andwf	(___fltol@f1+2)^0,f,c
  5146  002910  0E00               	movlw	0
  5147  002912  1604               	andwf	(___fltol@f1+3)^0,f,c
  5148  002914  0E96               	movlw	150
  5149  002916  5E0A               	subwf	___fltol@exp1^0,f,c
  5150  002918  BE0A               	btfsc	___fltol@exp1^0,7,c
  5151  00291A  EF93  F014         	goto	u3400
  5152  00291E  EF91  F014         	goto	u3401
  5153  002922                     u3401:
  5154  002922  EFA9  F014         	goto	l3090
  5155  002926                     u3400:
  5156  002926  500A               	movf	___fltol@exp1^0,w,c
  5157  002928  0A80               	xorlw	128
  5158  00292A  0F97               	addlw	151
  5159  00292C  B0D8               	btfsc	status,0,c
  5160  00292E  EF9B  F014         	goto	u3411
  5161  002932  EF9D  F014         	goto	u3410
  5162  002936                     u3411:
  5163  002936  EF9F  F014         	goto	l3086
  5164  00293A                     u3410:
  5165  00293A  EF62  F014         	goto	l3066
  5166  00293E                     l3086:
  5167  00293E  90D8               	bcf	status,0,c
  5168  002940  3204               	rrcf	(___fltol@f1+3)^0,f,c
  5169  002942  3203               	rrcf	(___fltol@f1+2)^0,f,c
  5170  002944  3202               	rrcf	(___fltol@f1+1)^0,f,c
  5171  002946  3201               	rrcf	___fltol@f1^0,f,c
  5172  002948  3E0A               	incfsz	___fltol@exp1^0,f,c
  5173  00294A  EF9F  F014         	goto	l3086
  5174  00294E  EFC1  F014         	goto	l3100
  5175  002952                     l3090:
  5176  002952  0E1F               	movlw	31
  5177  002954  640A               	cpfsgt	___fltol@exp1^0,c
  5178  002956  EFAF  F014         	goto	u3421
  5179  00295A  EFB1  F014         	goto	u3420
  5180  00295E                     u3421:
  5181  00295E  EFB9  F014         	goto	l3098
  5182  002962                     u3420:
  5183  002962  EF62  F014         	goto	l3066
  5184  002966                     l3096:
  5185  002966  90D8               	bcf	status,0,c
  5186  002968  3601               	rlcf	___fltol@f1^0,f,c
  5187  00296A  3602               	rlcf	(___fltol@f1+1)^0,f,c
  5188  00296C  3603               	rlcf	(___fltol@f1+2)^0,f,c
  5189  00296E  3604               	rlcf	(___fltol@f1+3)^0,f,c
  5190  002970  060A               	decf	___fltol@exp1^0,f,c
  5191  002972                     l3098:
  5192  002972  500A               	movf	___fltol@exp1^0,w,c
  5193  002974  A4D8               	btfss	status,2,c
  5194  002976  EFBF  F014         	goto	u3431
  5195  00297A  EFC1  F014         	goto	u3430
  5196  00297E                     u3431:
  5197  00297E  EFB3  F014         	goto	l3096
  5198  002982                     u3430:
  5199  002982                     l3100:
  5200  002982  5009               	movf	___fltol@sign1^0,w,c
  5201  002984  B4D8               	btfsc	status,2,c
  5202  002986  EFC7  F014         	goto	u3441
  5203  00298A  EFC9  F014         	goto	u3440
  5204  00298E                     u3441:
  5205  00298E  EFD1  F014         	goto	l3104
  5206  002992                     u3440:
  5207  002992  1E04               	comf	(___fltol@f1+3)^0,f,c
  5208  002994  1E03               	comf	(___fltol@f1+2)^0,f,c
  5209  002996  1E02               	comf	(___fltol@f1+1)^0,f,c
  5210  002998  6C01               	negf	___fltol@f1^0,c
  5211  00299A  0E00               	movlw	0
  5212  00299C  2202               	addwfc	(___fltol@f1+1)^0,f,c
  5213  00299E  2203               	addwfc	(___fltol@f1+2)^0,f,c
  5214  0029A0  2204               	addwfc	(___fltol@f1+3)^0,f,c
  5215  0029A2                     l3104:
  5216  0029A2  C001  F001         	movff	___fltol@f1,?___fltol
  5217  0029A6  C002  F002         	movff	___fltol@f1+1,?___fltol+1
  5218  0029AA  C003  F003         	movff	___fltol@f1+2,?___fltol+2
  5219  0029AE  C004  F004         	movff	___fltol@f1+3,?___fltol+3
  5220  0029B2                     l412:
  5221  0029B2  0012               	return		;funcret
  5222  0029B4                     __end_of___fltol:
  5223                           	callstack 0
  5224                           
  5225 ;; *************** function ___flsub *****************
  5226 ;; Defined at:
  5227 ;;		line 245 in file "C:\Program Files\Microchip\xc8\v2.20\pic\sources\c99\common\sprcadd.c"
  5228 ;; Parameters:    Size  Location     Type
  5229 ;;  b               4   25[COMRAM] long 
  5230 ;;  a               4   29[COMRAM] long 
  5231 ;; Auto vars:     Size  Location     Type
  5232 ;;		None
  5233 ;; Return value:  Size  Location     Type
  5234 ;;                  4   25[COMRAM] long 
  5235 ;; Registers used:
  5236 ;;		wreg, status,2, status,0, cstack
  5237 ;; Tracked objects:
  5238 ;;		On entry : 0/0
  5239 ;;		On exit  : 0/0
  5240 ;;		Unchanged: 0/0
  5241 ;; Data sizes:     COMRAM   BANK0   BANK1   BANK2   BANK3   BANK4   BANK5   BANK6   BANK7
  5242 ;;      Params:         8       0       0       0       0       0       0       0       0
  5243 ;;      Locals:         0       0       0       0       0       0       0       0       0
  5244 ;;      Temps:          0       0       0       0       0       0       0       0       0
  5245 ;;      Totals:         8       0       0       0       0       0       0       0       0
  5246 ;;Total ram usage:        8 bytes
  5247 ;; Hardware stack levels used:    1
  5248 ;; Hardware stack levels required when called:    1
  5249 ;; This function calls:
  5250 ;;		___fladd
  5251 ;; This function is called by:
  5252 ;;		_efgtoa
  5253 ;; This function uses a non-reentrant model
  5254 ;;
  5255                           
  5256                           	psect	text23
  5257  003352                     __ptext23:
  5258                           	callstack 0
  5259  003352                     ___flsub:
  5260                           	callstack 24
  5261  003352  0E00               	movlw	0
  5262  003354  1A1E               	xorwf	___flsub@a^0,f,c
  5263  003356  0E00               	movlw	0
  5264  003358  1A1F               	xorwf	(___flsub@a+1)^0,f,c
  5265  00335A  0E00               	movlw	0
  5266  00335C  1A20               	xorwf	(___flsub@a+2)^0,f,c
  5267  00335E  0E80               	movlw	128
  5268  003360  1A21               	xorwf	(___flsub@a+3)^0,f,c
  5269  003362  C01A  F001         	movff	___flsub@b,___fladd@b
  5270  003366  C01B  F002         	movff	___flsub@b+1,___fladd@b+1
  5271  00336A  C01C  F003         	movff	___flsub@b+2,___fladd@b+2
  5272  00336E  C01D  F004         	movff	___flsub@b+3,___fladd@b+3
  5273  003372  C01E  F005         	movff	___flsub@a,___fladd@a
  5274  003376  C01F  F006         	movff	___flsub@a+1,___fladd@a+1
  5275  00337A  C020  F007         	movff	___flsub@a+2,___fladd@a+2
  5276  00337E  C021  F008         	movff	___flsub@a+3,___fladd@a+3
  5277  003382  ECF1  F009         	call	___fladd	;wreg free
  5278  003386  C001  F01A         	movff	?___fladd,?___flsub
  5279  00338A  C002  F01B         	movff	?___fladd+1,?___flsub+1
  5280  00338E  C003  F01C         	movff	?___fladd+2,?___flsub+2
  5281  003392  C004  F01D         	movff	?___fladd+3,?___flsub+3
  5282  003396  0012               	return		;funcret
  5283  003398                     __end_of___flsub:
  5284                           	callstack 0
  5285                           
  5286 ;; *************** function ___fladd *****************
  5287 ;; Defined at:
  5288 ;;		line 10 in file "C:\Program Files\Microchip\xc8\v2.20\pic\sources\c99\common\sprcadd.c"
  5289 ;; Parameters:    Size  Location     Type
  5290 ;;  b               4    0[COMRAM] long 
  5291 ;;  a               4    4[COMRAM] long 
  5292 ;; Auto vars:     Size  Location     Type
  5293 ;;  grs             1   15[COMRAM] unsigned char 
  5294 ;;  bexp            1   14[COMRAM] unsigned char 
  5295 ;;  aexp            1   13[COMRAM] unsigned char 
  5296 ;;  signs           1   12[COMRAM] unsigned char 
  5297 ;; Return value:  Size  Location     Type
  5298 ;;                  4    0[COMRAM] unsigned char 
  5299 ;; Registers used:
  5300 ;;		wreg, status,2, status,0
  5301 ;; Tracked objects:
  5302 ;;		On entry : 0/0
  5303 ;;		On exit  : 0/0
  5304 ;;		Unchanged: 0/0
  5305 ;; Data sizes:     COMRAM   BANK0   BANK1   BANK2   BANK3   BANK4   BANK5   BANK6   BANK7
  5306 ;;      Params:         8       0       0       0       0       0       0       0       0
  5307 ;;      Locals:         4       0       0       0       0       0       0       0       0
  5308 ;;      Temps:          4       0       0       0       0       0       0       0       0
  5309 ;;      Totals:        16       0       0       0       0       0       0       0       0
  5310 ;;Total ram usage:       16 bytes
  5311 ;; Hardware stack levels used:    1
  5312 ;; This function calls:
  5313 ;;		Nothing
  5314 ;; This function is called by:
  5315 ;;		___flsub
  5316 ;;		_efgtoa
  5317 ;; This function uses a non-reentrant model
  5318 ;;
  5319                           
  5320                           	psect	text24
  5321  0013E2                     __ptext24:
  5322                           	callstack 0
  5323  0013E2                     ___fladd:
  5324                           	callstack 24
  5325  0013E2  5004               	movf	(___fladd@b+3)^0,w,c
  5326  0013E4  0B80               	andlw	128
  5327  0013E6  6E0D               	movwf	___fladd@signs^0,c
  5328  0013E8  5004               	movf	(___fladd@b+3)^0,w,c
  5329  0013EA  2404               	addwf	(___fladd@b+3)^0,w,c
  5330  0013EC  6E0F               	movwf	___fladd@bexp^0,c
  5331  0013EE  AE03               	btfss	(___fladd@b+2)^0,7,c
  5332  0013F0  EFFC  F009         	goto	u2321
  5333  0013F4  EFFE  F009         	goto	u2320
  5334  0013F8                     u2321:
  5335  0013F8  EFFF  F009         	goto	l2446
  5336  0013FC                     u2320:
  5337  0013FC  800F               	bsf	___fladd@bexp^0,0,c
  5338  0013FE                     l2446:
  5339  0013FE  500F               	movf	___fladd@bexp^0,w,c
  5340  001400  B4D8               	btfsc	status,2,c
  5341  001402  EF05  F00A         	goto	u2331
  5342  001406  EF07  F00A         	goto	u2330
  5343  00140A                     u2331:
  5344  00140A  EF1C  F00A         	goto	l2456
  5345  00140E                     u2330:
  5346  00140E  280F               	incf	___fladd@bexp^0,w,c
  5347  001410  A4D8               	btfss	status,2,c
  5348  001412  EF0D  F00A         	goto	u2341
  5349  001416  EF0F  F00A         	goto	u2340
  5350  00141A                     u2341:
  5351  00141A  EF17  F00A         	goto	l2452
  5352  00141E                     u2340:
  5353  00141E  0E00               	movlw	0
  5354  001420  6E01               	movwf	___fladd@b^0,c
  5355  001422  0E00               	movlw	0
  5356  001424  6E02               	movwf	(___fladd@b+1)^0,c
  5357  001426  0E00               	movlw	0
  5358  001428  6E03               	movwf	(___fladd@b+2)^0,c
  5359  00142A  0E00               	movlw	0
  5360  00142C  6E04               	movwf	(___fladd@b+3)^0,c
  5361  00142E                     l2452:
  5362  00142E  8E03               	bsf	(___fladd@b+2)^0,7,c
  5363  001430  0E00               	movlw	0
  5364  001432  6E04               	movwf	(___fladd@b+3)^0,c
  5365  001434  EF24  F00A         	goto	l2458
  5366  001438                     l2456:
  5367  001438  0E00               	movlw	0
  5368  00143A  6E01               	movwf	___fladd@b^0,c
  5369  00143C  0E00               	movlw	0
  5370  00143E  6E02               	movwf	(___fladd@b+1)^0,c
  5371  001440  0E00               	movlw	0
  5372  001442  6E03               	movwf	(___fladd@b+2)^0,c
  5373  001444  0E00               	movlw	0
  5374  001446  6E04               	movwf	(___fladd@b+3)^0,c
  5375  001448                     l2458:
  5376  001448  5008               	movf	(___fladd@a+3)^0,w,c
  5377  00144A  0B80               	andlw	128
  5378  00144C  6E0E               	movwf	___fladd@aexp^0,c
  5379  00144E  500D               	movf	___fladd@signs^0,w,c
  5380  001450  180E               	xorwf	___fladd@aexp^0,w,c
  5381  001452  B4D8               	btfsc	status,2,c
  5382  001454  EF2E  F00A         	goto	u2351
  5383  001458  EF30  F00A         	goto	u2350
  5384  00145C                     u2351:
  5385  00145C  EF31  F00A         	goto	l2464
  5386  001460                     u2350:
  5387  001460  8C0D               	bsf	___fladd@signs^0,6,c
  5388  001462                     l2464:
  5389  001462  5008               	movf	(___fladd@a+3)^0,w,c
  5390  001464  2408               	addwf	(___fladd@a+3)^0,w,c
  5391  001466  6E0E               	movwf	___fladd@aexp^0,c
  5392  001468  AE07               	btfss	(___fladd@a+2)^0,7,c
  5393  00146A  EF39  F00A         	goto	u2361
  5394  00146E  EF3B  F00A         	goto	u2360
  5395  001472                     u2361:
  5396  001472  EF3C  F00A         	goto	l2470
  5397  001476                     u2360:
  5398  001476  800E               	bsf	___fladd@aexp^0,0,c
  5399  001478                     l2470:
  5400  001478  500E               	movf	___fladd@aexp^0,w,c
  5401  00147A  B4D8               	btfsc	status,2,c
  5402  00147C  EF42  F00A         	goto	u2371
  5403  001480  EF44  F00A         	goto	u2370
  5404  001484                     u2371:
  5405  001484  EF59  F00A         	goto	l2480
  5406  001488                     u2370:
  5407  001488  280E               	incf	___fladd@aexp^0,w,c
  5408  00148A  A4D8               	btfss	status,2,c
  5409  00148C  EF4A  F00A         	goto	u2381
  5410  001490  EF4C  F00A         	goto	u2380
  5411  001494                     u2381:
  5412  001494  EF54  F00A         	goto	l2476
  5413  001498                     u2380:
  5414  001498  0E00               	movlw	0
  5415  00149A  6E05               	movwf	___fladd@a^0,c
  5416  00149C  0E00               	movlw	0
  5417  00149E  6E06               	movwf	(___fladd@a+1)^0,c
  5418  0014A0  0E00               	movlw	0
  5419  0014A2  6E07               	movwf	(___fladd@a+2)^0,c
  5420  0014A4  0E00               	movlw	0
  5421  0014A6  6E08               	movwf	(___fladd@a+3)^0,c
  5422  0014A8                     l2476:
  5423  0014A8  8E07               	bsf	(___fladd@a+2)^0,7,c
  5424  0014AA  0E00               	movlw	0
  5425  0014AC  6E08               	movwf	(___fladd@a+3)^0,c
  5426  0014AE  EF61  F00A         	goto	l2482
  5427  0014B2                     l2480:
  5428  0014B2  0E00               	movlw	0
  5429  0014B4  6E05               	movwf	___fladd@a^0,c
  5430  0014B6  0E00               	movlw	0
  5431  0014B8  6E06               	movwf	(___fladd@a+1)^0,c
  5432  0014BA  0E00               	movlw	0
  5433  0014BC  6E07               	movwf	(___fladd@a+2)^0,c
  5434  0014BE  0E00               	movlw	0
  5435  0014C0  6E08               	movwf	(___fladd@a+3)^0,c
  5436  0014C2                     l2482:
  5437  0014C2  500F               	movf	___fladd@bexp^0,w,c
  5438  0014C4  5C0E               	subwf	___fladd@aexp^0,w,c
  5439  0014C6  B0D8               	btfsc	status,0,c
  5440  0014C8  EF68  F00A         	goto	u2391
  5441  0014CC  EF6A  F00A         	goto	u2390
  5442  0014D0                     u2391:
  5443  0014D0  EF91  F00A         	goto	l2518
  5444  0014D4                     u2390:
  5445  0014D4  AC0D               	btfss	___fladd@signs^0,6,c
  5446  0014D6  EF6F  F00A         	goto	u2401
  5447  0014DA  EF71  F00A         	goto	u2400
  5448  0014DE                     u2401:
  5449  0014DE  EF73  F00A         	goto	l2488
  5450  0014E2                     u2400:
  5451  0014E2  0E80               	movlw	128
  5452  0014E4  1A0D               	xorwf	___fladd@signs^0,f,c
  5453  0014E6                     l2488:
  5454  0014E6  C00F  F010         	movff	___fladd@bexp,___fladd@grs
  5455  0014EA  C00E  F00F         	movff	___fladd@aexp,___fladd@bexp
  5456  0014EE  C010  F00E         	movff	___fladd@grs,___fladd@aexp
  5457  0014F2  C001  F010         	movff	___fladd@b,___fladd@grs
  5458  0014F6  C005  F001         	movff	___fladd@a,___fladd@b
  5459  0014FA  C010  F005         	movff	___fladd@grs,___fladd@a
  5460  0014FE  C002  F010         	movff	___fladd@b+1,___fladd@grs
  5461  001502  C006  F002         	movff	___fladd@a+1,___fladd@b+1
  5462  001506  C010  F006         	movff	___fladd@grs,___fladd@a+1
  5463  00150A  C003  F010         	movff	___fladd@b+2,___fladd@grs
  5464  00150E  C007  F003         	movff	___fladd@a+2,___fladd@b+2
  5465  001512  C010  F007         	movff	___fladd@grs,___fladd@a+2
  5466  001516  C004  F010         	movff	___fladd@b+3,___fladd@grs
  5467  00151A  C008  F004         	movff	___fladd@a+3,___fladd@b+3
  5468  00151E  C010  F008         	movff	___fladd@grs,___fladd@a+3
  5469  001522                     l2518:
  5470  001522  0E00               	movlw	0
  5471  001524  6E10               	movwf	___fladd@grs^0,c
  5472  001526  500F               	movf	___fladd@bexp^0,w,c
  5473  001528  C00E  F009         	movff	___fladd@aexp,??___fladd
  5474  00152C  6A0A               	clrf	(??___fladd+1)^0,c
  5475  00152E  5E09               	subwf	??___fladd^0,f,c
  5476  001530  0E00               	movlw	0
  5477  001532  5A0A               	subwfb	(??___fladd+1)^0,f,c
  5478  001534  BE0A               	btfsc	(??___fladd+1)^0,7,c
  5479  001536  EFA6  F00A         	goto	u2411
  5480  00153A  500A               	movf	(??___fladd+1)^0,w,c
  5481  00153C  E109               	bnz	u2410
  5482  00153E  0E1A               	movlw	26
  5483  001540  5C09               	subwf	??___fladd^0,w,c
  5484  001542  A0D8               	btfss	status,0,c
  5485  001544  EFA6  F00A         	goto	u2411
  5486  001548  EFA8  F00A         	goto	u2410
  5487  00154C                     u2411:
  5488  00154C  EFDF  F00A         	goto	l644
  5489  001550                     u2410:
  5490  001550  5001               	movf	___fladd@b^0,w,c
  5491  001552  1002               	iorwf	(___fladd@b+1)^0,w,c
  5492  001554  1003               	iorwf	(___fladd@b+2)^0,w,c
  5493  001556  1004               	iorwf	(___fladd@b+3)^0,w,c
  5494  001558  A4D8               	btfss	status,2,c
  5495  00155A  EFB1  F00A         	goto	u2421
  5496  00155E  EFB4  F00A         	goto	u2420
  5497  001562                     u2421:
  5498  001562  0E01               	movlw	1
  5499  001564  EFB5  F00A         	goto	u2430
  5500  001568                     u2420:
  5501  001568  0E00               	movlw	0
  5502  00156A                     u2430:
  5503  00156A  6E10               	movwf	___fladd@grs^0,c
  5504  00156C  0E00               	movlw	0
  5505  00156E  6E01               	movwf	___fladd@b^0,c
  5506  001570  0E00               	movlw	0
  5507  001572  6E02               	movwf	(___fladd@b+1)^0,c
  5508  001574  0E00               	movlw	0
  5509  001576  6E03               	movwf	(___fladd@b+2)^0,c
  5510  001578  0E00               	movlw	0
  5511  00157A  6E04               	movwf	(___fladd@b+3)^0,c
  5512  00157C  C00E  F00F         	movff	___fladd@aexp,___fladd@bexp
  5513  001580  EFE8  F00A         	goto	l643
  5514  001584                     l645:
  5515  001584  A010               	btfss	___fladd@grs^0,0,c
  5516  001586  EFC7  F00A         	goto	u2441
  5517  00158A  EFC9  F00A         	goto	u2440
  5518  00158E                     u2441:
  5519  00158E  EFCF  F00A         	goto	l2530
  5520  001592                     u2440:
  5521  001592  90D8               	bcf	status,0,c
  5522  001594  3010               	rrcf	___fladd@grs^0,w,c
  5523  001596  0901               	iorlw	1
  5524  001598  6E10               	movwf	___fladd@grs^0,c
  5525  00159A  EFD1  F00A         	goto	l2532
  5526  00159E                     l2530:
  5527  00159E  90D8               	bcf	status,0,c
  5528  0015A0  3210               	rrcf	___fladd@grs^0,f,c
  5529  0015A2                     l2532:
  5530  0015A2  A001               	btfss	___fladd@b^0,0,c
  5531  0015A4  EFD6  F00A         	goto	u2451
  5532  0015A8  EFD8  F00A         	goto	u2450
  5533  0015AC                     u2451:
  5534  0015AC  EFD9  F00A         	goto	l2536
  5535  0015B0                     u2450:
  5536  0015B0  8E10               	bsf	___fladd@grs^0,7,c
  5537  0015B2                     l2536:
  5538  0015B2  3404               	rlcf	(___fladd@b+3)^0,w,c
  5539  0015B4  3204               	rrcf	(___fladd@b+3)^0,f,c
  5540  0015B6  3203               	rrcf	(___fladd@b+2)^0,f,c
  5541  0015B8  3202               	rrcf	(___fladd@b+1)^0,f,c
  5542  0015BA  3201               	rrcf	___fladd@b^0,f,c
  5543  0015BC  2A0F               	incf	___fladd@bexp^0,f,c
  5544  0015BE                     l644:
  5545  0015BE  500E               	movf	___fladd@aexp^0,w,c
  5546  0015C0  5C0F               	subwf	___fladd@bexp^0,w,c
  5547  0015C2  A0D8               	btfss	status,0,c
  5548  0015C4  EFE6  F00A         	goto	u2461
  5549  0015C8  EFE8  F00A         	goto	u2460
  5550  0015CC                     u2461:
  5551  0015CC  EFC2  F00A         	goto	l645
  5552  0015D0                     u2460:
  5553  0015D0                     l643:
  5554  0015D0  BC0D               	btfsc	___fladd@signs^0,6,c
  5555  0015D2  EFED  F00A         	goto	u2471
  5556  0015D6  EFEF  F00A         	goto	u2470
  5557  0015DA                     u2471:
  5558  0015DA  EF2F  F00B         	goto	l2564
  5559  0015DE                     u2470:
  5560  0015DE  500F               	movf	___fladd@bexp^0,w,c
  5561  0015E0  A4D8               	btfss	status,2,c
  5562  0015E2  EFF5  F00A         	goto	u2481
  5563  0015E6  EFF7  F00A         	goto	u2480
  5564  0015EA                     u2481:
  5565  0015EA  EF01  F00B         	goto	l2546
  5566  0015EE                     u2480:
  5567  0015EE  0E00               	movlw	0
  5568  0015F0  6E01               	movwf	?___fladd^0,c
  5569  0015F2  0E00               	movlw	0
  5570  0015F4  6E02               	movwf	(?___fladd+1)^0,c
  5571  0015F6  0E00               	movlw	0
  5572  0015F8  6E03               	movwf	(?___fladd+2)^0,c
  5573  0015FA  0E00               	movlw	0
  5574  0015FC  6E04               	movwf	(?___fladd+3)^0,c
  5575  0015FE  EF50  F00C         	goto	l652
  5576  001602                     l2546:
  5577  001602  5005               	movf	___fladd@a^0,w,c
  5578  001604  2601               	addwf	___fladd@b^0,f,c
  5579  001606  5006               	movf	(___fladd@a+1)^0,w,c
  5580  001608  2202               	addwfc	(___fladd@b+1)^0,f,c
  5581  00160A  5007               	movf	(___fladd@a+2)^0,w,c
  5582  00160C  2203               	addwfc	(___fladd@b+2)^0,f,c
  5583  00160E  5008               	movf	(___fladd@a+3)^0,w,c
  5584  001610  2204               	addwfc	(___fladd@b+3)^0,f,c
  5585  001612  A004               	btfss	(___fladd@b+3)^0,0,c
  5586  001614  EF0E  F00B         	goto	u2491
  5587  001618  EF10  F00B         	goto	u2490
  5588  00161C                     u2491:
  5589  00161C  EFBC  F00B         	goto	l2600
  5590  001620                     u2490:
  5591  001620  A010               	btfss	___fladd@grs^0,0,c
  5592  001622  EF15  F00B         	goto	u2501
  5593  001626  EF17  F00B         	goto	u2500
  5594  00162A                     u2501:
  5595  00162A  EF1D  F00B         	goto	l2554
  5596  00162E                     u2500:
  5597  00162E  90D8               	bcf	status,0,c
  5598  001630  3010               	rrcf	___fladd@grs^0,w,c
  5599  001632  0901               	iorlw	1
  5600  001634  6E10               	movwf	___fladd@grs^0,c
  5601  001636  EF1F  F00B         	goto	l2556
  5602  00163A                     l2554:
  5603  00163A  90D8               	bcf	status,0,c
  5604  00163C  3210               	rrcf	___fladd@grs^0,f,c
  5605  00163E                     l2556:
  5606  00163E  A001               	btfss	___fladd@b^0,0,c
  5607  001640  EF24  F00B         	goto	u2511
  5608  001644  EF26  F00B         	goto	u2510
  5609  001648                     u2511:
  5610  001648  EF27  F00B         	goto	l2560
  5611  00164C                     u2510:
  5612  00164C  8E10               	bsf	___fladd@grs^0,7,c
  5613  00164E                     l2560:
  5614  00164E  3404               	rlcf	(___fladd@b+3)^0,w,c
  5615  001650  3204               	rrcf	(___fladd@b+3)^0,f,c
  5616  001652  3203               	rrcf	(___fladd@b+2)^0,f,c
  5617  001654  3202               	rrcf	(___fladd@b+1)^0,f,c
  5618  001656  3201               	rrcf	___fladd@b^0,f,c
  5619  001658  2A0F               	incf	___fladd@bexp^0,f,c
  5620  00165A  EFBC  F00B         	goto	l2600
  5621  00165E                     l2564:
  5622  00165E  5005               	movf	___fladd@a^0,w,c
  5623  001660  5C01               	subwf	___fladd@b^0,w,c
  5624  001662  5006               	movf	(___fladd@a+1)^0,w,c
  5625  001664  5802               	subwfb	(___fladd@b+1)^0,w,c
  5626  001666  5007               	movf	(___fladd@a+2)^0,w,c
  5627  001668  5803               	subwfb	(___fladd@b+2)^0,w,c
  5628  00166A  5004               	movf	(___fladd@b+3)^0,w,c
  5629  00166C  0A80               	xorlw	128
  5630  00166E  6E09               	movwf	??___fladd^0,c
  5631  001670  5008               	movf	(___fladd@a+3)^0,w,c
  5632  001672  0A80               	xorlw	128
  5633  001674  5809               	subwfb	??___fladd^0,w,c
  5634  001676  B0D8               	btfsc	status,0,c
  5635  001678  EF40  F00B         	goto	u2521
  5636  00167C  EF42  F00B         	goto	u2520
  5637  001680                     u2521:
  5638  001680  EF6D  F00B         	goto	l2574
  5639  001684                     u2520:
  5640  001684  5001               	movf	___fladd@b^0,w,c
  5641  001686  5C05               	subwf	___fladd@a^0,w,c
  5642  001688  6E09               	movwf	??___fladd^0,c
  5643  00168A  5002               	movf	(___fladd@b+1)^0,w,c
  5644  00168C  5806               	subwfb	(___fladd@a+1)^0,w,c
  5645  00168E  6E0A               	movwf	(??___fladd+1)^0,c
  5646  001690  5003               	movf	(___fladd@b+2)^0,w,c
  5647  001692  5807               	subwfb	(___fladd@a+2)^0,w,c
  5648  001694  6E0B               	movwf	(??___fladd+2)^0,c
  5649  001696  5004               	movf	(___fladd@b+3)^0,w,c
  5650  001698  5808               	subwfb	(___fladd@a+3)^0,w,c
  5651  00169A  6E0C               	movwf	(??___fladd+3)^0,c
  5652  00169C  0EFF               	movlw	255
  5653  00169E  2409               	addwf	??___fladd^0,w,c
  5654  0016A0  6E01               	movwf	___fladd@b^0,c
  5655  0016A2  0EFF               	movlw	255
  5656  0016A4  200A               	addwfc	(??___fladd+1)^0,w,c
  5657  0016A6  6E02               	movwf	(___fladd@b+1)^0,c
  5658  0016A8  0EFF               	movlw	255
  5659  0016AA  200B               	addwfc	(??___fladd+2)^0,w,c
  5660  0016AC  6E03               	movwf	(___fladd@b+2)^0,c
  5661  0016AE  0EFF               	movlw	255
  5662  0016B0  200C               	addwfc	(??___fladd+3)^0,w,c
  5663  0016B2  6E04               	movwf	(___fladd@b+3)^0,c
  5664  0016B4  0E80               	movlw	128
  5665  0016B6  1A0D               	xorwf	___fladd@signs^0,f,c
  5666  0016B8  6C10               	negf	___fladd@grs^0,c
  5667  0016BA  5010               	movf	___fladd@grs^0,w,c
  5668  0016BC  A4D8               	btfss	status,2,c
  5669  0016BE  EF63  F00B         	goto	u2531
  5670  0016C2  EF65  F00B         	goto	u2530
  5671  0016C6                     u2531:
  5672  0016C6  EF75  F00B         	goto	l660
  5673  0016CA                     u2530:
  5674  0016CA  0E01               	movlw	1
  5675  0016CC  2601               	addwf	___fladd@b^0,f,c
  5676  0016CE  0E00               	movlw	0
  5677  0016D0  2202               	addwfc	(___fladd@b+1)^0,f,c
  5678  0016D2  2203               	addwfc	(___fladd@b+2)^0,f,c
  5679  0016D4  2204               	addwfc	(___fladd@b+3)^0,f,c
  5680  0016D6  EF75  F00B         	goto	l660
  5681  0016DA                     l2574:
  5682  0016DA  5005               	movf	___fladd@a^0,w,c
  5683  0016DC  5E01               	subwf	___fladd@b^0,f,c
  5684  0016DE  5006               	movf	(___fladd@a+1)^0,w,c
  5685  0016E0  5A02               	subwfb	(___fladd@b+1)^0,f,c
  5686  0016E2  5007               	movf	(___fladd@a+2)^0,w,c
  5687  0016E4  5A03               	subwfb	(___fladd@b+2)^0,f,c
  5688  0016E6  5008               	movf	(___fladd@a+3)^0,w,c
  5689  0016E8  5A04               	subwfb	(___fladd@b+3)^0,f,c
  5690  0016EA                     l660:
  5691  0016EA  5001               	movf	___fladd@b^0,w,c
  5692  0016EC  1002               	iorwf	(___fladd@b+1)^0,w,c
  5693  0016EE  1003               	iorwf	(___fladd@b+2)^0,w,c
  5694  0016F0  1004               	iorwf	(___fladd@b+3)^0,w,c
  5695  0016F2  A4D8               	btfss	status,2,c
  5696  0016F4  EF7E  F00B         	goto	u2541
  5697  0016F8  EF80  F00B         	goto	u2540
  5698  0016FC                     u2541:
  5699  0016FC  EFB5  F00B         	goto	l2598
  5700  001700                     u2540:
  5701  001700  5010               	movf	___fladd@grs^0,w,c
  5702  001702  A4D8               	btfss	status,2,c
  5703  001704  EF86  F00B         	goto	u2551
  5704  001708  EF88  F00B         	goto	u2550
  5705  00170C                     u2551:
  5706  00170C  EFB5  F00B         	goto	l2598
  5707  001710                     u2550:
  5708  001710  0E00               	movlw	0
  5709  001712  6E01               	movwf	?___fladd^0,c
  5710  001714  0E00               	movlw	0
  5711  001716  6E02               	movwf	(?___fladd+1)^0,c
  5712  001718  0E00               	movlw	0
  5713  00171A  6E03               	movwf	(?___fladd+2)^0,c
  5714  00171C  0E00               	movlw	0
  5715  00171E  6E04               	movwf	(?___fladd+3)^0,c
  5716  001720  EF50  F00C         	goto	l652
  5717  001724                     l2582:
  5718  001724  90D8               	bcf	status,0,c
  5719  001726  3601               	rlcf	___fladd@b^0,f,c
  5720  001728  3602               	rlcf	(___fladd@b+1)^0,f,c
  5721  00172A  3603               	rlcf	(___fladd@b+2)^0,f,c
  5722  00172C  3604               	rlcf	(___fladd@b+3)^0,f,c
  5723  00172E  AE10               	btfss	___fladd@grs^0,7,c
  5724  001730  EF9C  F00B         	goto	u2561
  5725  001734  EF9E  F00B         	goto	u2560
  5726  001738                     u2561:
  5727  001738  EF9F  F00B         	goto	l2588
  5728  00173C                     u2560:
  5729  00173C  8001               	bsf	___fladd@b^0,0,c
  5730  00173E                     l2588:
  5731  00173E  A010               	btfss	___fladd@grs^0,0,c
  5732  001740  EFA4  F00B         	goto	u2571
  5733  001744  EFA6  F00B         	goto	u2570
  5734  001748                     u2571:
  5735  001748  EFAA  F00B         	goto	l2592
  5736  00174C                     u2570:
  5737  00174C  80D8               	bsf	status,0,c
  5738  00174E  3610               	rlcf	___fladd@grs^0,f,c
  5739  001750  EFAC  F00B         	goto	l2594
  5740  001754                     l2592:
  5741  001754  90D8               	bcf	status,0,c
  5742  001756  3610               	rlcf	___fladd@grs^0,f,c
  5743  001758                     l2594:
  5744  001758  500F               	movf	___fladd@bexp^0,w,c
  5745  00175A  B4D8               	btfsc	status,2,c
  5746  00175C  EFB2  F00B         	goto	u2581
  5747  001760  EFB4  F00B         	goto	u2580
  5748  001764                     u2581:
  5749  001764  EFB5  F00B         	goto	l2598
  5750  001768                     u2580:
  5751  001768  060F               	decf	___fladd@bexp^0,f,c
  5752  00176A                     l2598:
  5753  00176A  AE03               	btfss	(___fladd@b+2)^0,7,c
  5754  00176C  EFBA  F00B         	goto	u2591
  5755  001770  EFBC  F00B         	goto	u2590
  5756  001774                     u2591:
  5757  001774  EF92  F00B         	goto	l2582
  5758  001778                     u2590:
  5759  001778                     l2600:
  5760  001778  0E00               	movlw	0
  5761  00177A  6E0E               	movwf	___fladd@aexp^0,c
  5762  00177C  AE10               	btfss	___fladd@grs^0,7,c
  5763  00177E  EFC3  F00B         	goto	u2601
  5764  001782  EFC5  F00B         	goto	u2600
  5765  001786                     u2601:
  5766  001786  EFDD  F00B         	goto	l669
  5767  00178A                     u2600:
  5768  00178A  C010  F009         	movff	___fladd@grs,??___fladd
  5769  00178E  0E7F               	movlw	127
  5770  001790  1609               	andwf	??___fladd^0,f,c
  5771  001792  B4D8               	btfsc	status,2,c
  5772  001794  EFCE  F00B         	goto	u2611
  5773  001798  EFD0  F00B         	goto	u2610
  5774  00179C                     u2611:
  5775  00179C  EFD4  F00B         	goto	l670
  5776  0017A0                     u2610:
  5777  0017A0                     l2606:
  5778  0017A0  0E01               	movlw	1
  5779  0017A2  6E0E               	movwf	___fladd@aexp^0,c
  5780  0017A4  EFDD  F00B         	goto	l669
  5781  0017A8                     l670:
  5782  0017A8  A001               	btfss	___fladd@b^0,0,c
  5783  0017AA  EFD9  F00B         	goto	u2621
  5784  0017AE  EFDB  F00B         	goto	u2620
  5785  0017B2                     u2621:
  5786  0017B2  EFDD  F00B         	goto	l669
  5787  0017B6                     u2620:
  5788  0017B6  EFD0  F00B         	goto	l2606
  5789  0017BA                     l669:
  5790  0017BA  500E               	movf	___fladd@aexp^0,w,c
  5791  0017BC  B4D8               	btfsc	status,2,c
  5792  0017BE  EFE3  F00B         	goto	u2631
  5793  0017C2  EFE5  F00B         	goto	u2630
  5794  0017C6                     u2631:
  5795  0017C6  EF10  F00C         	goto	l2618
  5796  0017CA                     u2630:
  5797  0017CA  0E01               	movlw	1
  5798  0017CC  2601               	addwf	___fladd@b^0,f,c
  5799  0017CE  0E00               	movlw	0
  5800  0017D0  2202               	addwfc	(___fladd@b+1)^0,f,c
  5801  0017D2  2203               	addwfc	(___fladd@b+2)^0,f,c
  5802  0017D4  2204               	addwfc	(___fladd@b+3)^0,f,c
  5803  0017D6  A004               	btfss	(___fladd@b+3)^0,0,c
  5804  0017D8  EFF0  F00B         	goto	u2641
  5805  0017DC  EFF2  F00B         	goto	u2640
  5806  0017E0                     u2641:
  5807  0017E0  EF10  F00C         	goto	l2618
  5808  0017E4                     u2640:
  5809  0017E4  C001  F009         	movff	___fladd@b,??___fladd
  5810  0017E8  C002  F00A         	movff	___fladd@b+1,??___fladd+1
  5811  0017EC  C003  F00B         	movff	___fladd@b+2,??___fladd+2
  5812  0017F0  C004  F00C         	movff	___fladd@b+3,??___fladd+3
  5813  0017F4  340C               	rlcf	(??___fladd+3)^0,w,c
  5814  0017F6  320C               	rrcf	(??___fladd+3)^0,f,c
  5815  0017F8  320B               	rrcf	(??___fladd+2)^0,f,c
  5816  0017FA  320A               	rrcf	(??___fladd+1)^0,f,c
  5817  0017FC  3209               	rrcf	??___fladd^0,f,c
  5818  0017FE  C009  F001         	movff	??___fladd,___fladd@b
  5819  001802  C00A  F002         	movff	??___fladd+1,___fladd@b+1
  5820  001806  C00B  F003         	movff	??___fladd+2,___fladd@b+2
  5821  00180A  C00C  F004         	movff	??___fladd+3,___fladd@b+3
  5822  00180E  280F               	incf	___fladd@bexp^0,w,c
  5823  001810  B4D8               	btfsc	status,2,c
  5824  001812  EF0D  F00C         	goto	u2651
  5825  001816  EF0F  F00C         	goto	u2650
  5826  00181A                     u2651:
  5827  00181A  EF10  F00C         	goto	l2618
  5828  00181E                     u2650:
  5829  00181E  2A0F               	incf	___fladd@bexp^0,f,c
  5830  001820                     l2618:
  5831  001820  280F               	incf	___fladd@bexp^0,w,c
  5832  001822  B4D8               	btfsc	status,2,c
  5833  001824  EF16  F00C         	goto	u2661
  5834  001828  EF18  F00C         	goto	u2660
  5835  00182C                     u2661:
  5836  00182C  EF20  F00C         	goto	l2622
  5837  001830                     u2660:
  5838  001830  500F               	movf	___fladd@bexp^0,w,c
  5839  001832  A4D8               	btfss	status,2,c
  5840  001834  EF1E  F00C         	goto	u2671
  5841  001838  EF20  F00C         	goto	u2670
  5842  00183C                     u2671:
  5843  00183C  EF32  F00C         	goto	l2626
  5844  001840                     u2670:
  5845  001840                     l2622:
  5846  001840  0E00               	movlw	0
  5847  001842  6E01               	movwf	___fladd@b^0,c
  5848  001844  0E00               	movlw	0
  5849  001846  6E02               	movwf	(___fladd@b+1)^0,c
  5850  001848  0E00               	movlw	0
  5851  00184A  6E03               	movwf	(___fladd@b+2)^0,c
  5852  00184C  0E00               	movlw	0
  5853  00184E  6E04               	movwf	(___fladd@b+3)^0,c
  5854  001850  500F               	movf	___fladd@bexp^0,w,c
  5855  001852  A4D8               	btfss	status,2,c
  5856  001854  EF2E  F00C         	goto	u2681
  5857  001858  EF30  F00C         	goto	u2680
  5858  00185C                     u2681:
  5859  00185C  EF32  F00C         	goto	l2626
  5860  001860                     u2680:
  5861  001860  0E00               	movlw	0
  5862  001862  6E0D               	movwf	___fladd@signs^0,c
  5863  001864                     l2626:
  5864  001864  A00F               	btfss	___fladd@bexp^0,0,c
  5865  001866  EF37  F00C         	goto	u2691
  5866  00186A  EF39  F00C         	goto	u2690
  5867  00186E                     u2691:
  5868  00186E  EF3C  F00C         	goto	l2630
  5869  001872                     u2690:
  5870  001872  8E03               	bsf	(___fladd@b+2)^0,7,c
  5871  001874  EF3D  F00C         	goto	l2632
  5872  001878                     l2630:
  5873  001878  9E03               	bcf	(___fladd@b+2)^0,7,c
  5874  00187A                     l2632:
  5875  00187A  90D8               	bcf	status,0,c
  5876  00187C  300F               	rrcf	___fladd@bexp^0,w,c
  5877  00187E  6E04               	movwf	(___fladd@b+3)^0,c
  5878  001880  AE0D               	btfss	___fladd@signs^0,7,c
  5879  001882  EF45  F00C         	goto	u2701
  5880  001886  EF47  F00C         	goto	u2700
  5881  00188A                     u2701:
  5882  00188A  EF48  F00C         	goto	l2638
  5883  00188E                     u2700:
  5884  00188E  8E04               	bsf	(___fladd@b+3)^0,7,c
  5885  001890                     l2638:
  5886  001890  C001  F001         	movff	___fladd@b,?___fladd
  5887  001894  C002  F002         	movff	___fladd@b+1,?___fladd+1
  5888  001898  C003  F003         	movff	___fladd@b+2,?___fladd+2
  5889  00189C  C004  F004         	movff	___fladd@b+3,?___fladd+3
  5890  0018A0                     l652:
  5891  0018A0  0012               	return		;funcret
  5892  0018A2                     __end_of___fladd:
  5893                           	callstack 0
  5894                           
  5895 ;; *************** function ___flneg *****************
  5896 ;; Defined at:
  5897 ;;		line 15 in file "C:\Program Files\Microchip\xc8\v2.20\pic\sources\c99\common\flneg.c"
  5898 ;; Parameters:    Size  Location     Type
  5899 ;;  f1              4    0[COMRAM] unsigned char 
  5900 ;; Auto vars:     Size  Location     Type
  5901 ;;		None
  5902 ;; Return value:  Size  Location     Type
  5903 ;;                  4    0[COMRAM] unsigned char 
  5904 ;; Registers used:
  5905 ;;		wreg, status,2, status,0
  5906 ;; Tracked objects:
  5907 ;;		On entry : 0/0
  5908 ;;		On exit  : 0/0
  5909 ;;		Unchanged: 0/0
  5910 ;; Data sizes:     COMRAM   BANK0   BANK1   BANK2   BANK3   BANK4   BANK5   BANK6   BANK7
  5911 ;;      Params:         4       0       0       0       0       0       0       0       0
  5912 ;;      Locals:         0       0       0       0       0       0       0       0       0
  5913 ;;      Temps:          0       0       0       0       0       0       0       0       0
  5914 ;;      Totals:         4       0       0       0       0       0       0       0       0
  5915 ;;Total ram usage:        4 bytes
  5916 ;; Hardware stack levels used:    1
  5917 ;; This function calls:
  5918 ;;		Nothing
  5919 ;; This function is called by:
  5920 ;;		_efgtoa
  5921 ;; This function uses a non-reentrant model
  5922 ;;
  5923                           
  5924                           	psect	text25
  5925  00344E                     __ptext25:
  5926                           	callstack 0
  5927  00344E                     ___flneg:
  5928                           	callstack 25
  5929  00344E  5001               	movf	___flneg@f1^0,w,c
  5930  003450  1002               	iorwf	(___flneg@f1+1)^0,w,c
  5931  003452  1003               	iorwf	(___flneg@f1+2)^0,w,c
  5932  003454  1004               	iorwf	(___flneg@f1+3)^0,w,c
  5933  003456  B4D8               	btfsc	status,2,c
  5934  003458  EF30  F01A         	goto	u3371
  5935  00345C  EF32  F01A         	goto	u3370
  5936  003460                     u3371:
  5937  003460  EF3A  F01A         	goto	l3060
  5938  003464                     u3370:
  5939  003464  0E00               	movlw	0
  5940  003466  1A01               	xorwf	___flneg@f1^0,f,c
  5941  003468  0E00               	movlw	0
  5942  00346A  1A02               	xorwf	(___flneg@f1+1)^0,f,c
  5943  00346C  0E00               	movlw	0
  5944  00346E  1A03               	xorwf	(___flneg@f1+2)^0,f,c
  5945  003470  0E80               	movlw	128
  5946  003472  1A04               	xorwf	(___flneg@f1+3)^0,f,c
  5947  003474                     l3060:
  5948  003474  C001  F001         	movff	___flneg@f1,?___flneg
  5949  003478  C002  F002         	movff	___flneg@f1+1,?___flneg+1
  5950  00347C  C003  F003         	movff	___flneg@f1+2,?___flneg+2
  5951  003480  C004  F004         	movff	___flneg@f1+3,?___flneg+3
  5952  003484  0012               	return		;funcret
  5953  003486                     __end_of___flneg:
  5954                           	callstack 0
  5955                           
  5956 ;; *************** function ___flmul *****************
  5957 ;; Defined at:
  5958 ;;		line 8 in file "C:\Program Files\Microchip\xc8\v2.20\pic\sources\c99\common\sprcmul.c"
  5959 ;; Parameters:    Size  Location     Type
  5960 ;;  b               4    0[COMRAM] unsigned char 
  5961 ;;  a               4    4[COMRAM] unsigned char 
  5962 ;; Auto vars:     Size  Location     Type
  5963 ;;  prod            4   19[COMRAM] struct .
  5964 ;;  grs             4   13[COMRAM] unsigned long 
  5965 ;;  temp            2   23[COMRAM] struct .
  5966 ;;  bexp            1   18[COMRAM] unsigned char 
  5967 ;;  aexp            1   17[COMRAM] unsigned char 
  5968 ;;  sign            1   12[COMRAM] unsigned char 
  5969 ;; Return value:  Size  Location     Type
  5970 ;;                  4    0[COMRAM] unsigned char 
  5971 ;; Registers used:
  5972 ;;		wreg, status,2, status,0, prodl, prodh
  5973 ;; Tracked objects:
  5974 ;;		On entry : 0/0
  5975 ;;		On exit  : 0/0
  5976 ;;		Unchanged: 0/0
  5977 ;; Data sizes:     COMRAM   BANK0   BANK1   BANK2   BANK3   BANK4   BANK5   BANK6   BANK7
  5978 ;;      Params:         8       0       0       0       0       0       0       0       0
  5979 ;;      Locals:        13       0       0       0       0       0       0       0       0
  5980 ;;      Temps:          4       0       0       0       0       0       0       0       0
  5981 ;;      Totals:        25       0       0       0       0       0       0       0       0
  5982 ;;Total ram usage:       25 bytes
  5983 ;; Hardware stack levels used:    1
  5984 ;; This function calls:
  5985 ;;		Nothing
  5986 ;; This function is called by:
  5987 ;;		_Ciclo_Util
  5988 ;;		_efgtoa
  5989 ;; This function uses a non-reentrant model
  5990 ;;
  5991                           
  5992                           	psect	text26
  5993  0018A2                     __ptext26:
  5994                           	callstack 0
  5995  0018A2                     ___flmul:
  5996                           	callstack 25
  5997  0018A2  5004               	movf	(___flmul@b+3)^0,w,c
  5998  0018A4  0B80               	andlw	128
  5999  0018A6  6E0D               	movwf	___flmul@sign^0,c
  6000  0018A8  5004               	movf	(___flmul@b+3)^0,w,c
  6001  0018AA  2404               	addwf	(___flmul@b+3)^0,w,c
  6002  0018AC  6E13               	movwf	___flmul@bexp^0,c
  6003  0018AE  AE03               	btfss	(___flmul@b+2)^0,7,c
  6004  0018B0  EF5C  F00C         	goto	u2981
  6005  0018B4  EF5E  F00C         	goto	u2980
  6006  0018B8                     u2981:
  6007  0018B8  EF5F  F00C         	goto	l2808
  6008  0018BC                     u2980:
  6009  0018BC  8013               	bsf	___flmul@bexp^0,0,c
  6010  0018BE                     l2808:
  6011  0018BE  5013               	movf	___flmul@bexp^0,w,c
  6012  0018C0  B4D8               	btfsc	status,2,c
  6013  0018C2  EF65  F00C         	goto	u2991
  6014  0018C6  EF67  F00C         	goto	u2990
  6015  0018CA                     u2991:
  6016  0018CA  EF7A  F00C         	goto	l2816
  6017  0018CE                     u2990:
  6018  0018CE  2813               	incf	___flmul@bexp^0,w,c
  6019  0018D0  A4D8               	btfss	status,2,c
  6020  0018D2  EF6D  F00C         	goto	u3001
  6021  0018D6  EF6F  F00C         	goto	u3000
  6022  0018DA                     u3001:
  6023  0018DA  EF77  F00C         	goto	l2814
  6024  0018DE                     u3000:
  6025  0018DE  0E00               	movlw	0
  6026  0018E0  6E01               	movwf	___flmul@b^0,c
  6027  0018E2  0E00               	movlw	0
  6028  0018E4  6E02               	movwf	(___flmul@b+1)^0,c
  6029  0018E6  0E00               	movlw	0
  6030  0018E8  6E03               	movwf	(___flmul@b+2)^0,c
  6031  0018EA  0E00               	movlw	0
  6032  0018EC  6E04               	movwf	(___flmul@b+3)^0,c
  6033  0018EE                     l2814:
  6034  0018EE  8E03               	bsf	(___flmul@b+2)^0,7,c
  6035  0018F0  EF82  F00C         	goto	l2818
  6036  0018F4                     l2816:
  6037  0018F4  0E00               	movlw	0
  6038  0018F6  6E01               	movwf	___flmul@b^0,c
  6039  0018F8  0E00               	movlw	0
  6040  0018FA  6E02               	movwf	(___flmul@b+1)^0,c
  6041  0018FC  0E00               	movlw	0
  6042  0018FE  6E03               	movwf	(___flmul@b+2)^0,c
  6043  001900  0E00               	movlw	0
  6044  001902  6E04               	movwf	(___flmul@b+3)^0,c
  6045  001904                     l2818:
  6046  001904  5008               	movf	(___flmul@a+3)^0,w,c
  6047  001906  0B80               	andlw	128
  6048  001908  1A0D               	xorwf	___flmul@sign^0,f,c
  6049  00190A  5008               	movf	(___flmul@a+3)^0,w,c
  6050  00190C  2408               	addwf	(___flmul@a+3)^0,w,c
  6051  00190E  6E12               	movwf	___flmul@aexp^0,c
  6052  001910  AE07               	btfss	(___flmul@a+2)^0,7,c
  6053  001912  EF8D  F00C         	goto	u3011
  6054  001916  EF8F  F00C         	goto	u3010
  6055  00191A                     u3011:
  6056  00191A  EF90  F00C         	goto	l2826
  6057  00191E                     u3010:
  6058  00191E  8012               	bsf	___flmul@aexp^0,0,c
  6059  001920                     l2826:
  6060  001920  5012               	movf	___flmul@aexp^0,w,c
  6061  001922  B4D8               	btfsc	status,2,c
  6062  001924  EF96  F00C         	goto	u3021
  6063  001928  EF98  F00C         	goto	u3020
  6064  00192C                     u3021:
  6065  00192C  EFAB  F00C         	goto	l2834
  6066  001930                     u3020:
  6067  001930  2812               	incf	___flmul@aexp^0,w,c
  6068  001932  A4D8               	btfss	status,2,c
  6069  001934  EF9E  F00C         	goto	u3031
  6070  001938  EFA0  F00C         	goto	u3030
  6071  00193C                     u3031:
  6072  00193C  EFA8  F00C         	goto	l2832
  6073  001940                     u3030:
  6074  001940  0E00               	movlw	0
  6075  001942  6E05               	movwf	___flmul@a^0,c
  6076  001944  0E00               	movlw	0
  6077  001946  6E06               	movwf	(___flmul@a+1)^0,c
  6078  001948  0E00               	movlw	0
  6079  00194A  6E07               	movwf	(___flmul@a+2)^0,c
  6080  00194C  0E00               	movlw	0
  6081  00194E  6E08               	movwf	(___flmul@a+3)^0,c
  6082  001950                     l2832:
  6083  001950  8E07               	bsf	(___flmul@a+2)^0,7,c
  6084  001952  EFB3  F00C         	goto	l729
  6085  001956                     l2834:
  6086  001956  0E00               	movlw	0
  6087  001958  6E05               	movwf	___flmul@a^0,c
  6088  00195A  0E00               	movlw	0
  6089  00195C  6E06               	movwf	(___flmul@a+1)^0,c
  6090  00195E  0E00               	movlw	0
  6091  001960  6E07               	movwf	(___flmul@a+2)^0,c
  6092  001962  0E00               	movlw	0
  6093  001964  6E08               	movwf	(___flmul@a+3)^0,c
  6094  001966                     l729:
  6095  001966  5012               	movf	___flmul@aexp^0,w,c
  6096  001968  B4D8               	btfsc	status,2,c
  6097  00196A  EFB9  F00C         	goto	u3041
  6098  00196E  EFBB  F00C         	goto	u3040
  6099  001972                     u3041:
  6100  001972  EFC3  F00C         	goto	l2838
  6101  001976                     u3040:
  6102  001976  5013               	movf	___flmul@bexp^0,w,c
  6103  001978  A4D8               	btfss	status,2,c
  6104  00197A  EFC1  F00C         	goto	u3051
  6105  00197E  EFC3  F00C         	goto	u3050
  6106  001982                     u3051:
  6107  001982  EFCD  F00C         	goto	l2842
  6108  001986                     u3050:
  6109  001986                     l2838:
  6110  001986  0E00               	movlw	0
  6111  001988  6E01               	movwf	?___flmul^0,c
  6112  00198A  0E00               	movlw	0
  6113  00198C  6E02               	movwf	(?___flmul+1)^0,c
  6114  00198E  0E00               	movlw	0
  6115  001990  6E03               	movwf	(?___flmul+2)^0,c
  6116  001992  0E00               	movlw	0
  6117  001994  6E04               	movwf	(?___flmul+3)^0,c
  6118  001996  EF65  F00E         	goto	l733
  6119  00199A                     l2842:
  6120  00199A  5007               	movf	(___flmul@a+2)^0,w,c
  6121  00199C  0201               	mulwf	___flmul@b^0,c
  6122  00199E  CFF3 F018          	movff	prodl,___flmul@temp
  6123  0019A2  CFF4 F019          	movff	prodh,___flmul@temp+1
  6124  0019A6  5018               	movf	___flmul@temp^0,w,c
  6125  0019A8  6E0E               	movwf	___flmul@grs^0,c
  6126  0019AA  6A0F               	clrf	(___flmul@grs+1)^0,c
  6127  0019AC  6A10               	clrf	(___flmul@grs+2)^0,c
  6128  0019AE  6A11               	clrf	(___flmul@grs+3)^0,c
  6129  0019B0  5019               	movf	(___flmul@temp+1)^0,w,c
  6130  0019B2  6E14               	movwf	___flmul@prod^0,c
  6131  0019B4  6A15               	clrf	(___flmul@prod+1)^0,c
  6132  0019B6  6A16               	clrf	(___flmul@prod+2)^0,c
  6133  0019B8  6A17               	clrf	(___flmul@prod+3)^0,c
  6134  0019BA  5006               	movf	(___flmul@a+1)^0,w,c
  6135  0019BC  0202               	mulwf	(___flmul@b+1)^0,c
  6136  0019BE  CFF3 F018          	movff	prodl,___flmul@temp
  6137  0019C2  CFF4 F019          	movff	prodh,___flmul@temp+1
  6138  0019C6  5018               	movf	___flmul@temp^0,w,c
  6139  0019C8  260E               	addwf	___flmul@grs^0,f,c
  6140  0019CA  0E00               	movlw	0
  6141  0019CC  220F               	addwfc	(___flmul@grs+1)^0,f,c
  6142  0019CE  2210               	addwfc	(___flmul@grs+2)^0,f,c
  6143  0019D0  2211               	addwfc	(___flmul@grs+3)^0,f,c
  6144  0019D2  5019               	movf	(___flmul@temp+1)^0,w,c
  6145  0019D4  2614               	addwf	___flmul@prod^0,f,c
  6146  0019D6  0E00               	movlw	0
  6147  0019D8  2215               	addwfc	(___flmul@prod+1)^0,f,c
  6148  0019DA  2216               	addwfc	(___flmul@prod+2)^0,f,c
  6149  0019DC  2217               	addwfc	(___flmul@prod+3)^0,f,c
  6150  0019DE  5005               	movf	___flmul@a^0,w,c
  6151  0019E0  0203               	mulwf	(___flmul@b+2)^0,c
  6152  0019E2  CFF3 F018          	movff	prodl,___flmul@temp
  6153  0019E6  CFF4 F019          	movff	prodh,___flmul@temp+1
  6154  0019EA  5018               	movf	___flmul@temp^0,w,c
  6155  0019EC  260E               	addwf	___flmul@grs^0,f,c
  6156  0019EE  0E00               	movlw	0
  6157  0019F0  220F               	addwfc	(___flmul@grs+1)^0,f,c
  6158  0019F2  2210               	addwfc	(___flmul@grs+2)^0,f,c
  6159  0019F4  2211               	addwfc	(___flmul@grs+3)^0,f,c
  6160  0019F6  5019               	movf	(___flmul@temp+1)^0,w,c
  6161  0019F8  2614               	addwf	___flmul@prod^0,f,c
  6162  0019FA  0E00               	movlw	0
  6163  0019FC  2215               	addwfc	(___flmul@prod+1)^0,f,c
  6164  0019FE  2216               	addwfc	(___flmul@prod+2)^0,f,c
  6165  001A00  2217               	addwfc	(___flmul@prod+3)^0,f,c
  6166  001A02  C010  F011         	movff	___flmul@grs+2,___flmul@grs+3
  6167  001A06  C00F  F010         	movff	___flmul@grs+1,___flmul@grs+2
  6168  001A0A  C00E  F00F         	movff	___flmul@grs,___flmul@grs+1
  6169  001A0E  6A0E               	clrf	___flmul@grs^0,c
  6170  001A10  5005               	movf	___flmul@a^0,w,c
  6171  001A12  0202               	mulwf	(___flmul@b+1)^0,c
  6172  001A14  CFF3 F018          	movff	prodl,___flmul@temp
  6173  001A18  CFF4 F019          	movff	prodh,___flmul@temp+1
  6174  001A1C  5018               	movf	___flmul@temp^0,w,c
  6175  001A1E  260E               	addwf	___flmul@grs^0,f,c
  6176  001A20  5019               	movf	(___flmul@temp+1)^0,w,c
  6177  001A22  220F               	addwfc	(___flmul@grs+1)^0,f,c
  6178  001A24  0E00               	movlw	0
  6179  001A26  2210               	addwfc	(___flmul@grs+2)^0,f,c
  6180  001A28  0E00               	movlw	0
  6181  001A2A  2211               	addwfc	(___flmul@grs+3)^0,f,c
  6182  001A2C  5006               	movf	(___flmul@a+1)^0,w,c
  6183  001A2E  0201               	mulwf	___flmul@b^0,c
  6184  001A30  CFF3 F018          	movff	prodl,___flmul@temp
  6185  001A34  CFF4 F019          	movff	prodh,___flmul@temp+1
  6186  001A38  5018               	movf	___flmul@temp^0,w,c
  6187  001A3A  260E               	addwf	___flmul@grs^0,f,c
  6188  001A3C  5019               	movf	(___flmul@temp+1)^0,w,c
  6189  001A3E  220F               	addwfc	(___flmul@grs+1)^0,f,c
  6190  001A40  0E00               	movlw	0
  6191  001A42  2210               	addwfc	(___flmul@grs+2)^0,f,c
  6192  001A44  0E00               	movlw	0
  6193  001A46  2211               	addwfc	(___flmul@grs+3)^0,f,c
  6194  001A48  C010  F011         	movff	___flmul@grs+2,___flmul@grs+3
  6195  001A4C  C00F  F010         	movff	___flmul@grs+1,___flmul@grs+2
  6196  001A50  C00E  F00F         	movff	___flmul@grs,___flmul@grs+1
  6197  001A54  6A0E               	clrf	___flmul@grs^0,c
  6198  001A56  5005               	movf	___flmul@a^0,w,c
  6199  001A58  0201               	mulwf	___flmul@b^0,c
  6200  001A5A  CFF3 F018          	movff	prodl,___flmul@temp
  6201  001A5E  CFF4 F019          	movff	prodh,___flmul@temp+1
  6202  001A62  5018               	movf	___flmul@temp^0,w,c
  6203  001A64  260E               	addwf	___flmul@grs^0,f,c
  6204  001A66  5019               	movf	(___flmul@temp+1)^0,w,c
  6205  001A68  220F               	addwfc	(___flmul@grs+1)^0,f,c
  6206  001A6A  0E00               	movlw	0
  6207  001A6C  2210               	addwfc	(___flmul@grs+2)^0,f,c
  6208  001A6E  0E00               	movlw	0
  6209  001A70  2211               	addwfc	(___flmul@grs+3)^0,f,c
  6210  001A72  5007               	movf	(___flmul@a+2)^0,w,c
  6211  001A74  0202               	mulwf	(___flmul@b+1)^0,c
  6212  001A76  CFF3 F018          	movff	prodl,___flmul@temp
  6213  001A7A  CFF4 F019          	movff	prodh,___flmul@temp+1
  6214  001A7E  5018               	movf	___flmul@temp^0,w,c
  6215  001A80  2614               	addwf	___flmul@prod^0,f,c
  6216  001A82  5019               	movf	(___flmul@temp+1)^0,w,c
  6217  001A84  2215               	addwfc	(___flmul@prod+1)^0,f,c
  6218  001A86  0E00               	movlw	0
  6219  001A88  2216               	addwfc	(___flmul@prod+2)^0,f,c
  6220  001A8A  0E00               	movlw	0
  6221  001A8C  2217               	addwfc	(___flmul@prod+3)^0,f,c
  6222  001A8E  5006               	movf	(___flmul@a+1)^0,w,c
  6223  001A90  0203               	mulwf	(___flmul@b+2)^0,c
  6224  001A92  CFF3 F018          	movff	prodl,___flmul@temp
  6225  001A96  CFF4 F019          	movff	prodh,___flmul@temp+1
  6226  001A9A  5018               	movf	___flmul@temp^0,w,c
  6227  001A9C  2614               	addwf	___flmul@prod^0,f,c
  6228  001A9E  5019               	movf	(___flmul@temp+1)^0,w,c
  6229  001AA0  2215               	addwfc	(___flmul@prod+1)^0,f,c
  6230  001AA2  0E00               	movlw	0
  6231  001AA4  2216               	addwfc	(___flmul@prod+2)^0,f,c
  6232  001AA6  0E00               	movlw	0
  6233  001AA8  2217               	addwfc	(___flmul@prod+3)^0,f,c
  6234  001AAA  5007               	movf	(___flmul@a+2)^0,w,c
  6235  001AAC  0203               	mulwf	(___flmul@b+2)^0,c
  6236  001AAE  CFF3 F018          	movff	prodl,___flmul@temp
  6237  001AB2  CFF4 F019          	movff	prodh,___flmul@temp+1
  6238  001AB6  5018               	movf	___flmul@temp^0,w,c
  6239  001AB8  6E09               	movwf	??___flmul^0,c
  6240  001ABA  5019               	movf	(___flmul@temp+1)^0,w,c
  6241  001ABC  6E0A               	movwf	(??___flmul+1)^0,c
  6242  001ABE  6A0B               	clrf	(??___flmul+2)^0,c
  6243  001AC0  6A0C               	clrf	(??___flmul+3)^0,c
  6244  001AC2  C00B  F00C         	movff	??___flmul+2,??___flmul+3
  6245  001AC6  C00A  F00B         	movff	??___flmul+1,??___flmul+2
  6246  001ACA  C009  F00A         	movff	??___flmul,??___flmul+1
  6247  001ACE  6A09               	clrf	??___flmul^0,c
  6248  001AD0  5009               	movf	??___flmul^0,w,c
  6249  001AD2  2614               	addwf	___flmul@prod^0,f,c
  6250  001AD4  500A               	movf	(??___flmul+1)^0,w,c
  6251  001AD6  2215               	addwfc	(___flmul@prod+1)^0,f,c
  6252  001AD8  500B               	movf	(??___flmul+2)^0,w,c
  6253  001ADA  2216               	addwfc	(___flmul@prod+2)^0,f,c
  6254  001ADC  500C               	movf	(??___flmul+3)^0,w,c
  6255  001ADE  2217               	addwfc	(___flmul@prod+3)^0,f,c
  6256  001AE0  C00E  F009         	movff	___flmul@grs,??___flmul
  6257  001AE4  C00F  F00A         	movff	___flmul@grs+1,??___flmul+1
  6258  001AE8  C010  F00B         	movff	___flmul@grs+2,??___flmul+2
  6259  001AEC  C011  F00C         	movff	___flmul@grs+3,??___flmul+3
  6260  001AF0  0E19               	movlw	25
  6261  001AF2  EF80  F00D         	goto	u3060
  6262  001AF6                     u3065:
  6263  001AF6  90D8               	bcf	status,0,c
  6264  001AF8  320C               	rrcf	(??___flmul+3)^0,f,c
  6265  001AFA  320B               	rrcf	(??___flmul+2)^0,f,c
  6266  001AFC  320A               	rrcf	(??___flmul+1)^0,f,c
  6267  001AFE  3209               	rrcf	??___flmul^0,f,c
  6268  001B00                     u3060:
  6269  001B00  2EE8               	decfsz	wreg,f,c
  6270  001B02  EF7B  F00D         	goto	u3065
  6271  001B06  5009               	movf	??___flmul^0,w,c
  6272  001B08  2614               	addwf	___flmul@prod^0,f,c
  6273  001B0A  500A               	movf	(??___flmul+1)^0,w,c
  6274  001B0C  2215               	addwfc	(___flmul@prod+1)^0,f,c
  6275  001B0E  500B               	movf	(??___flmul+2)^0,w,c
  6276  001B10  2216               	addwfc	(___flmul@prod+2)^0,f,c
  6277  001B12  500C               	movf	(??___flmul+3)^0,w,c
  6278  001B14  2217               	addwfc	(___flmul@prod+3)^0,f,c
  6279  001B16  C010  F011         	movff	___flmul@grs+2,___flmul@grs+3
  6280  001B1A  C00F  F010         	movff	___flmul@grs+1,___flmul@grs+2
  6281  001B1E  C00E  F00F         	movff	___flmul@grs,___flmul@grs+1
  6282  001B22  6A0E               	clrf	___flmul@grs^0,c
  6283  001B24  5012               	movf	___flmul@aexp^0,w,c
  6284  001B26  C013  F009         	movff	___flmul@bexp,??___flmul
  6285  001B2A  6A0A               	clrf	(??___flmul+1)^0,c
  6286  001B2C  2609               	addwf	??___flmul^0,f,c
  6287  001B2E  0E00               	movlw	0
  6288  001B30  220A               	addwfc	(??___flmul+1)^0,f,c
  6289  001B32  0E82               	movlw	130
  6290  001B34  2409               	addwf	??___flmul^0,w,c
  6291  001B36  6E18               	movwf	___flmul@temp^0,c
  6292  001B38  0EFF               	movlw	255
  6293  001B3A  200A               	addwfc	(??___flmul+1)^0,w,c
  6294  001B3C  6E19               	movwf	(___flmul@temp+1)^0,c
  6295  001B3E  EFB6  F00D         	goto	l2890
  6296  001B42                     l2884:
  6297  001B42  90D8               	bcf	status,0,c
  6298  001B44  3614               	rlcf	___flmul@prod^0,f,c
  6299  001B46  3615               	rlcf	(___flmul@prod+1)^0,f,c
  6300  001B48  3616               	rlcf	(___flmul@prod+2)^0,f,c
  6301  001B4A  3617               	rlcf	(___flmul@prod+3)^0,f,c
  6302  001B4C  AE11               	btfss	(___flmul@grs+3)^0,7,c
  6303  001B4E  EFAB  F00D         	goto	u3071
  6304  001B52  EFAD  F00D         	goto	u3070
  6305  001B56                     u3071:
  6306  001B56  EFAE  F00D         	goto	l736
  6307  001B5A                     u3070:
  6308  001B5A  8014               	bsf	___flmul@prod^0,0,c
  6309  001B5C                     l736:
  6310  001B5C  90D8               	bcf	status,0,c
  6311  001B5E  360E               	rlcf	___flmul@grs^0,f,c
  6312  001B60  360F               	rlcf	(___flmul@grs+1)^0,f,c
  6313  001B62  3610               	rlcf	(___flmul@grs+2)^0,f,c
  6314  001B64  3611               	rlcf	(___flmul@grs+3)^0,f,c
  6315  001B66  0618               	decf	___flmul@temp^0,f,c
  6316  001B68  A0D8               	btfss	status,0,c
  6317  001B6A  0619               	decf	(___flmul@temp+1)^0,f,c
  6318  001B6C                     l2890:
  6319  001B6C  AE16               	btfss	(___flmul@prod+2)^0,7,c
  6320  001B6E  EFBB  F00D         	goto	u3081
  6321  001B72  EFBD  F00D         	goto	u3080
  6322  001B76                     u3081:
  6323  001B76  EFA1  F00D         	goto	l2884
  6324  001B7A                     u3080:
  6325  001B7A  0E00               	movlw	0
  6326  001B7C  6E12               	movwf	___flmul@aexp^0,c
  6327  001B7E  AE11               	btfss	(___flmul@grs+3)^0,7,c
  6328  001B80  EFC4  F00D         	goto	u3091
  6329  001B84  EFC6  F00D         	goto	u3090
  6330  001B88                     u3091:
  6331  001B88  EFEA  F00D         	goto	l738
  6332  001B8C                     u3090:
  6333  001B8C  0EFF               	movlw	255
  6334  001B8E  140E               	andwf	___flmul@grs^0,w,c
  6335  001B90  6E09               	movwf	??___flmul^0,c
  6336  001B92  0EFF               	movlw	255
  6337  001B94  140F               	andwf	(___flmul@grs+1)^0,w,c
  6338  001B96  6E0A               	movwf	(??___flmul+1)^0,c
  6339  001B98  0EFF               	movlw	255
  6340  001B9A  1410               	andwf	(___flmul@grs+2)^0,w,c
  6341  001B9C  6E0B               	movwf	(??___flmul+2)^0,c
  6342  001B9E  0E7F               	movlw	127
  6343  001BA0  1411               	andwf	(___flmul@grs+3)^0,w,c
  6344  001BA2  6E0C               	movwf	(??___flmul+3)^0,c
  6345  001BA4  5009               	movf	??___flmul^0,w,c
  6346  001BA6  100A               	iorwf	(??___flmul+1)^0,w,c
  6347  001BA8  100B               	iorwf	(??___flmul+2)^0,w,c
  6348  001BAA  100C               	iorwf	(??___flmul+3)^0,w,c
  6349  001BAC  B4D8               	btfsc	status,2,c
  6350  001BAE  EFDB  F00D         	goto	u3101
  6351  001BB2  EFDD  F00D         	goto	u3100
  6352  001BB6                     u3101:
  6353  001BB6  EFE1  F00D         	goto	l739
  6354  001BBA                     u3100:
  6355  001BBA                     l2898:
  6356  001BBA  0E01               	movlw	1
  6357  001BBC  6E12               	movwf	___flmul@aexp^0,c
  6358  001BBE  EFEA  F00D         	goto	l738
  6359  001BC2                     l739:
  6360  001BC2  A014               	btfss	___flmul@prod^0,0,c
  6361  001BC4  EFE6  F00D         	goto	u3111
  6362  001BC8  EFE8  F00D         	goto	u3110
  6363  001BCC                     u3111:
  6364  001BCC  EFEA  F00D         	goto	l738
  6365  001BD0                     u3110:
  6366  001BD0  EFDD  F00D         	goto	l2898
  6367  001BD4                     l738:
  6368  001BD4  5012               	movf	___flmul@aexp^0,w,c
  6369  001BD6  B4D8               	btfsc	status,2,c
  6370  001BD8  EFF0  F00D         	goto	u3121
  6371  001BDC  EFF2  F00D         	goto	u3120
  6372  001BE0                     u3121:
  6373  001BE0  EF16  F00E         	goto	l2910
  6374  001BE4                     u3120:
  6375  001BE4  0E01               	movlw	1
  6376  001BE6  2614               	addwf	___flmul@prod^0,f,c
  6377  001BE8  0E00               	movlw	0
  6378  001BEA  2215               	addwfc	(___flmul@prod+1)^0,f,c
  6379  001BEC  2216               	addwfc	(___flmul@prod+2)^0,f,c
  6380  001BEE  2217               	addwfc	(___flmul@prod+3)^0,f,c
  6381  001BF0  A017               	btfss	(___flmul@prod+3)^0,0,c
  6382  001BF2  EFFD  F00D         	goto	u3131
  6383  001BF6  EFFF  F00D         	goto	u3130
  6384  001BFA                     u3131:
  6385  001BFA  EF16  F00E         	goto	l2910
  6386  001BFE                     u3130:
  6387  001BFE  C014  F009         	movff	___flmul@prod,??___flmul
  6388  001C02  C015  F00A         	movff	___flmul@prod+1,??___flmul+1
  6389  001C06  C016  F00B         	movff	___flmul@prod+2,??___flmul+2
  6390  001C0A  C017  F00C         	movff	___flmul@prod+3,??___flmul+3
  6391  001C0E  340C               	rlcf	(??___flmul+3)^0,w,c
  6392  001C10  320C               	rrcf	(??___flmul+3)^0,f,c
  6393  001C12  320B               	rrcf	(??___flmul+2)^0,f,c
  6394  001C14  320A               	rrcf	(??___flmul+1)^0,f,c
  6395  001C16  3209               	rrcf	??___flmul^0,f,c
  6396  001C18  C009  F014         	movff	??___flmul,___flmul@prod
  6397  001C1C  C00A  F015         	movff	??___flmul+1,___flmul@prod+1
  6398  001C20  C00B  F016         	movff	??___flmul+2,___flmul@prod+2
  6399  001C24  C00C  F017         	movff	??___flmul+3,___flmul@prod+3
  6400  001C28  4A18               	infsnz	___flmul@temp^0,f,c
  6401  001C2A  2A19               	incf	(___flmul@temp+1)^0,f,c
  6402  001C2C                     l2910:
  6403  001C2C  BE19               	btfsc	(___flmul@temp+1)^0,7,c
  6404  001C2E  EF21  F00E         	goto	u3141
  6405  001C32  5019               	movf	(___flmul@temp+1)^0,w,c
  6406  001C34  E108               	bnz	u3140
  6407  001C36  2818               	incf	___flmul@temp^0,w,c
  6408  001C38  A0D8               	btfss	status,0,c
  6409  001C3A  EF21  F00E         	goto	u3141
  6410  001C3E  EF23  F00E         	goto	u3140
  6411  001C42                     u3141:
  6412  001C42  EF2D  F00E         	goto	l2914
  6413  001C46                     u3140:
  6414  001C46  0E00               	movlw	0
  6415  001C48  6E14               	movwf	___flmul@prod^0,c
  6416  001C4A  0E00               	movlw	0
  6417  001C4C  6E15               	movwf	(___flmul@prod+1)^0,c
  6418  001C4E  0E80               	movlw	128
  6419  001C50  6E16               	movwf	(___flmul@prod+2)^0,c
  6420  001C52  0E7F               	movlw	127
  6421  001C54  6E17               	movwf	(___flmul@prod+3)^0,c
  6422  001C56  EF5B  F00E         	goto	l2926
  6423  001C5A                     l2914:
  6424  001C5A  BE19               	btfsc	(___flmul@temp+1)^0,7,c
  6425  001C5C  EF3A  F00E         	goto	u3150
  6426  001C60  5019               	movf	(___flmul@temp+1)^0,w,c
  6427  001C62  E106               	bnz	u3151
  6428  001C64  0418               	decf	___flmul@temp^0,w,c
  6429  001C66  B0D8               	btfsc	status,0,c
  6430  001C68  EF38  F00E         	goto	u3151
  6431  001C6C  EF3A  F00E         	goto	u3150
  6432  001C70                     u3151:
  6433  001C70  EF46  F00E         	goto	l746
  6434  001C74                     u3150:
  6435  001C74  0E00               	movlw	0
  6436  001C76  6E14               	movwf	___flmul@prod^0,c
  6437  001C78  0E00               	movlw	0
  6438  001C7A  6E15               	movwf	(___flmul@prod+1)^0,c
  6439  001C7C  0E00               	movlw	0
  6440  001C7E  6E16               	movwf	(___flmul@prod+2)^0,c
  6441  001C80  0E00               	movlw	0
  6442  001C82  6E17               	movwf	(___flmul@prod+3)^0,c
  6443  001C84  0E00               	movlw	0
  6444  001C86  6E0D               	movwf	___flmul@sign^0,c
  6445  001C88  EF5B  F00E         	goto	l2926
  6446  001C8C                     l746:
  6447  001C8C  C018  F013         	movff	___flmul@temp,___flmul@bexp
  6448  001C90  0EFF               	movlw	255
  6449  001C92  1614               	andwf	___flmul@prod^0,f,c
  6450  001C94  0EFF               	movlw	255
  6451  001C96  1615               	andwf	(___flmul@prod+1)^0,f,c
  6452  001C98  0E7F               	movlw	127
  6453  001C9A  1616               	andwf	(___flmul@prod+2)^0,f,c
  6454  001C9C  0E00               	movlw	0
  6455  001C9E  1617               	andwf	(___flmul@prod+3)^0,f,c
  6456  001CA0  A013               	btfss	___flmul@bexp^0,0,c
  6457  001CA2  EF55  F00E         	goto	u3161
  6458  001CA6  EF57  F00E         	goto	u3160
  6459  001CAA                     u3161:
  6460  001CAA  EF58  F00E         	goto	l2924
  6461  001CAE                     u3160:
  6462  001CAE  8E16               	bsf	(___flmul@prod+2)^0,7,c
  6463  001CB0                     l2924:
  6464  001CB0  90D8               	bcf	status,0,c
  6465  001CB2  3013               	rrcf	___flmul@bexp^0,w,c
  6466  001CB4  6E17               	movwf	(___flmul@prod+3)^0,c
  6467  001CB6                     l2926:
  6468  001CB6  500D               	movf	___flmul@sign^0,w,c
  6469  001CB8  1217               	iorwf	(___flmul@prod+3)^0,f,c
  6470  001CBA  C014  F001         	movff	___flmul@prod,?___flmul
  6471  001CBE  C015  F002         	movff	___flmul@prod+1,?___flmul+1
  6472  001CC2  C016  F003         	movff	___flmul@prod+2,?___flmul+2
  6473  001CC6  C017  F004         	movff	___flmul@prod+3,?___flmul+3
  6474  001CCA                     l733:
  6475  001CCA  0012               	return		;funcret
  6476  001CCC                     __end_of___flmul:
  6477                           	callstack 0
  6478                           
  6479 ;; *************** function ___flge *****************
  6480 ;; Defined at:
  6481 ;;		line 4 in file "C:\Program Files\Microchip\xc8\v2.20\pic\sources\c99\common\flge.c"
  6482 ;; Parameters:    Size  Location     Type
  6483 ;;  ff1             4   25[COMRAM] unsigned char 
  6484 ;;  ff2             4   29[COMRAM] unsigned char 
  6485 ;; Auto vars:     Size  Location     Type
  6486 ;;		None
  6487 ;; Return value:  Size  Location     Type
  6488 ;;		None               void
  6489 ;; Registers used:
  6490 ;;		wreg, status,2, status,0
  6491 ;; Tracked objects:
  6492 ;;		On entry : 0/0
  6493 ;;		On exit  : 0/0
  6494 ;;		Unchanged: 0/0
  6495 ;; Data sizes:     COMRAM   BANK0   BANK1   BANK2   BANK3   BANK4   BANK5   BANK6   BANK7
  6496 ;;      Params:         8       0       0       0       0       0       0       0       0
  6497 ;;      Locals:         0       0       0       0       0       0       0       0       0
  6498 ;;      Temps:          4       0       0       0       0       0       0       0       0
  6499 ;;      Totals:        12       0       0       0       0       0       0       0       0
  6500 ;;Total ram usage:       12 bytes
  6501 ;; Hardware stack levels used:    1
  6502 ;; This function calls:
  6503 ;;		Nothing
  6504 ;; This function is called by:
  6505 ;;		_efgtoa
  6506 ;; This function uses a non-reentrant model
  6507 ;;
  6508                           
  6509                           	psect	text27
  6510  0029B4                     __ptext27:
  6511                           	callstack 0
  6512  0029B4                     ___flge:
  6513                           	callstack 25
  6514  0029B4  0E00               	movlw	0
  6515  0029B6  141A               	andwf	___flge@ff1^0,w,c
  6516  0029B8  6E22               	movwf	??___flge^0,c
  6517  0029BA  0E00               	movlw	0
  6518  0029BC  141B               	andwf	(___flge@ff1+1)^0,w,c
  6519  0029BE  6E23               	movwf	(??___flge+1)^0,c
  6520  0029C0  0E80               	movlw	128
  6521  0029C2  141C               	andwf	(___flge@ff1+2)^0,w,c
  6522  0029C4  6E24               	movwf	(??___flge+2)^0,c
  6523  0029C6  0E7F               	movlw	127
  6524  0029C8  141D               	andwf	(___flge@ff1+3)^0,w,c
  6525  0029CA  6E25               	movwf	(??___flge+3)^0,c
  6526  0029CC  5022               	movf	??___flge^0,w,c
  6527  0029CE  1023               	iorwf	(??___flge+1)^0,w,c
  6528  0029D0  1024               	iorwf	(??___flge+2)^0,w,c
  6529  0029D2  1025               	iorwf	(??___flge+3)^0,w,c
  6530  0029D4  A4D8               	btfss	status,2,c
  6531  0029D6  EFEF  F014         	goto	u3321
  6532  0029DA  EFF1  F014         	goto	u3320
  6533  0029DE                     u3321:
  6534  0029DE  EFF9  F014         	goto	l3038
  6535  0029E2                     u3320:
  6536  0029E2  0E00               	movlw	0
  6537  0029E4  6E1A               	movwf	___flge@ff1^0,c
  6538  0029E6  0E00               	movlw	0
  6539  0029E8  6E1B               	movwf	(___flge@ff1+1)^0,c
  6540  0029EA  0E00               	movlw	0
  6541  0029EC  6E1C               	movwf	(___flge@ff1+2)^0,c
  6542  0029EE  0E00               	movlw	0
  6543  0029F0  6E1D               	movwf	(___flge@ff1+3)^0,c
  6544  0029F2                     l3038:
  6545  0029F2  0E00               	movlw	0
  6546  0029F4  141E               	andwf	___flge@ff2^0,w,c
  6547  0029F6  6E22               	movwf	??___flge^0,c
  6548  0029F8  0E00               	movlw	0
  6549  0029FA  141F               	andwf	(___flge@ff2+1)^0,w,c
  6550  0029FC  6E23               	movwf	(??___flge+1)^0,c
  6551  0029FE  0E80               	movlw	128
  6552  002A00  1420               	andwf	(___flge@ff2+2)^0,w,c
  6553  002A02  6E24               	movwf	(??___flge+2)^0,c
  6554  002A04  0E7F               	movlw	127
  6555  002A06  1421               	andwf	(___flge@ff2+3)^0,w,c
  6556  002A08  6E25               	movwf	(??___flge+3)^0,c
  6557  002A0A  5022               	movf	??___flge^0,w,c
  6558  002A0C  1023               	iorwf	(??___flge+1)^0,w,c
  6559  002A0E  1024               	iorwf	(??___flge+2)^0,w,c
  6560  002A10  1025               	iorwf	(??___flge+3)^0,w,c
  6561  002A12  A4D8               	btfss	status,2,c
  6562  002A14  EF0E  F015         	goto	u3331
  6563  002A18  EF10  F015         	goto	u3330
  6564  002A1C                     u3331:
  6565  002A1C  EF18  F015         	goto	l3042
  6566  002A20                     u3330:
  6567  002A20  0E00               	movlw	0
  6568  002A22  6E1E               	movwf	___flge@ff2^0,c
  6569  002A24  0E00               	movlw	0
  6570  002A26  6E1F               	movwf	(___flge@ff2+1)^0,c
  6571  002A28  0E00               	movlw	0
  6572  002A2A  6E20               	movwf	(___flge@ff2+2)^0,c
  6573  002A2C  0E00               	movlw	0
  6574  002A2E  6E21               	movwf	(___flge@ff2+3)^0,c
  6575  002A30                     l3042:
  6576  002A30  AE1D               	btfss	(___flge@ff1+3)^0,7,c
  6577  002A32  EF1D  F015         	goto	u3341
  6578  002A36  EF1F  F015         	goto	u3340
  6579  002A3A                     u3341:
  6580  002A3A  EF28  F015         	goto	l3046
  6581  002A3E                     u3340:
  6582  002A3E  6C1A               	negf	___flge@ff1^0,c
  6583  002A40  1E1B               	comf	(___flge@ff1+1)^0,f,c
  6584  002A42  B0D8               	btfsc	status,0,c
  6585  002A44  2A1B               	incf	(___flge@ff1+1)^0,f,c
  6586  002A46  1E1C               	comf	(___flge@ff1+2)^0,f,c
  6587  002A48  B0D8               	btfsc	status,0,c
  6588  002A4A  2A1C               	incf	(___flge@ff1+2)^0,f,c
  6589  002A4C  0E80               	movlw	128
  6590  002A4E  561D               	subfwb	(___flge@ff1+3)^0,f,c
  6591  002A50                     l3046:
  6592  002A50  AE21               	btfss	(___flge@ff2+3)^0,7,c
  6593  002A52  EF2D  F015         	goto	u3351
  6594  002A56  EF2F  F015         	goto	u3350
  6595  002A5A                     u3351:
  6596  002A5A  EF38  F015         	goto	l380
  6597  002A5E                     u3350:
  6598  002A5E  6C1E               	negf	___flge@ff2^0,c
  6599  002A60  1E1F               	comf	(___flge@ff2+1)^0,f,c
  6600  002A62  B0D8               	btfsc	status,0,c
  6601  002A64  2A1F               	incf	(___flge@ff2+1)^0,f,c
  6602  002A66  1E20               	comf	(___flge@ff2+2)^0,f,c
  6603  002A68  B0D8               	btfsc	status,0,c
  6604  002A6A  2A20               	incf	(___flge@ff2+2)^0,f,c
  6605  002A6C  0E80               	movlw	128
  6606  002A6E  5621               	subfwb	(___flge@ff2+3)^0,f,c
  6607  002A70                     l380:
  6608  002A70  0E00               	movlw	0
  6609  002A72  1A1A               	xorwf	___flge@ff1^0,f,c
  6610  002A74  0E00               	movlw	0
  6611  002A76  1A1B               	xorwf	(___flge@ff1+1)^0,f,c
  6612  002A78  0E00               	movlw	0
  6613  002A7A  1A1C               	xorwf	(___flge@ff1+2)^0,f,c
  6614  002A7C  0E80               	movlw	128
  6615  002A7E  1A1D               	xorwf	(___flge@ff1+3)^0,f,c
  6616  002A80  0E00               	movlw	0
  6617  002A82  1A1E               	xorwf	___flge@ff2^0,f,c
  6618  002A84  0E00               	movlw	0
  6619  002A86  1A1F               	xorwf	(___flge@ff2+1)^0,f,c
  6620  002A88  0E00               	movlw	0
  6621  002A8A  1A20               	xorwf	(___flge@ff2+2)^0,f,c
  6622  002A8C  0E80               	movlw	128
  6623  002A8E  1A21               	xorwf	(___flge@ff2+3)^0,f,c
  6624  002A90  501E               	movf	___flge@ff2^0,w,c
  6625  002A92  5C1A               	subwf	___flge@ff1^0,w,c
  6626  002A94  501F               	movf	(___flge@ff2+1)^0,w,c
  6627  002A96  581B               	subwfb	(___flge@ff1+1)^0,w,c
  6628  002A98  5020               	movf	(___flge@ff2+2)^0,w,c
  6629  002A9A  581C               	subwfb	(___flge@ff1+2)^0,w,c
  6630  002A9C  5021               	movf	(___flge@ff2+3)^0,w,c
  6631  002A9E  581D               	subwfb	(___flge@ff1+3)^0,w,c
  6632  002AA0  B0D8               	btfsc	status,0,c
  6633  002AA2  EF55  F015         	goto	u3361
  6634  002AA6  EF57  F015         	goto	u3360
  6635  002AAA                     u3361:
  6636  002AAA  EF5A  F015         	goto	l3052
  6637  002AAE                     u3360:
  6638  002AAE  90D8               	bcf	status,0,c
  6639  002AB0  EF5B  F015         	goto	l385
  6640  002AB4                     l3052:
  6641  002AB4  80D8               	bsf	status,0,c
  6642  002AB6                     l385:
  6643  002AB6  0012               	return		;funcret
  6644  002AB8                     __end_of___flge:
  6645                           	callstack 0
  6646                           
  6647 ;; *************** function ___fleq *****************
  6648 ;; Defined at:
  6649 ;;		line 4 in file "C:\Program Files\Microchip\xc8\v2.20\pic\sources\c99\common\fleq.c"
  6650 ;; Parameters:    Size  Location     Type
  6651 ;;  ff1             4    0[COMRAM] unsigned char 
  6652 ;;  ff2             4    4[COMRAM] unsigned char 
  6653 ;; Auto vars:     Size  Location     Type
  6654 ;;		None
  6655 ;; Return value:  Size  Location     Type
  6656 ;;		None               void
  6657 ;; Registers used:
  6658 ;;		wreg, status,2, status,0
  6659 ;; Tracked objects:
  6660 ;;		On entry : 0/0
  6661 ;;		On exit  : 0/0
  6662 ;;		Unchanged: 0/0
  6663 ;; Data sizes:     COMRAM   BANK0   BANK1   BANK2   BANK3   BANK4   BANK5   BANK6   BANK7
  6664 ;;      Params:         8       0       0       0       0       0       0       0       0
  6665 ;;      Locals:         0       0       0       0       0       0       0       0       0
  6666 ;;      Temps:          4       0       0       0       0       0       0       0       0
  6667 ;;      Totals:        12       0       0       0       0       0       0       0       0
  6668 ;;Total ram usage:       12 bytes
  6669 ;; Hardware stack levels used:    1
  6670 ;; This function calls:
  6671 ;;		Nothing
  6672 ;; This function is called by:
  6673 ;;		_efgtoa
  6674 ;; This function uses a non-reentrant model
  6675 ;;
  6676                           
  6677                           	psect	text28
  6678  002F90                     __ptext28:
  6679                           	callstack 0
  6680  002F90                     ___fleq:
  6681                           	callstack 25
  6682  002F90  0E00               	movlw	0
  6683  002F92  1401               	andwf	___fleq@ff1^0,w,c
  6684  002F94  6E09               	movwf	??___fleq^0,c
  6685  002F96  0E00               	movlw	0
  6686  002F98  1402               	andwf	(___fleq@ff1+1)^0,w,c
  6687  002F9A  6E0A               	movwf	(??___fleq+1)^0,c
  6688  002F9C  0E80               	movlw	128
  6689  002F9E  1403               	andwf	(___fleq@ff1+2)^0,w,c
  6690  002FA0  6E0B               	movwf	(??___fleq+2)^0,c
  6691  002FA2  0E7F               	movlw	127
  6692  002FA4  1404               	andwf	(___fleq@ff1+3)^0,w,c
  6693  002FA6  6E0C               	movwf	(??___fleq+3)^0,c
  6694  002FA8  5009               	movf	??___fleq^0,w,c
  6695  002FAA  100A               	iorwf	(??___fleq+1)^0,w,c
  6696  002FAC  100B               	iorwf	(??___fleq+2)^0,w,c
  6697  002FAE  100C               	iorwf	(??___fleq+3)^0,w,c
  6698  002FB0  A4D8               	btfss	status,2,c
  6699  002FB2  EFDD  F017         	goto	u3291
  6700  002FB6  EFDF  F017         	goto	u3290
  6701  002FBA                     u3291:
  6702  002FBA  EFE7  F017         	goto	l3022
  6703  002FBE                     u3290:
  6704  002FBE  0E00               	movlw	0
  6705  002FC0  6E01               	movwf	___fleq@ff1^0,c
  6706  002FC2  0E00               	movlw	0
  6707  002FC4  6E02               	movwf	(___fleq@ff1+1)^0,c
  6708  002FC6  0E00               	movlw	0
  6709  002FC8  6E03               	movwf	(___fleq@ff1+2)^0,c
  6710  002FCA  0E00               	movlw	0
  6711  002FCC  6E04               	movwf	(___fleq@ff1+3)^0,c
  6712  002FCE                     l3022:
  6713  002FCE  0E00               	movlw	0
  6714  002FD0  1405               	andwf	___fleq@ff2^0,w,c
  6715  002FD2  6E09               	movwf	??___fleq^0,c
  6716  002FD4  0E00               	movlw	0
  6717  002FD6  1406               	andwf	(___fleq@ff2+1)^0,w,c
  6718  002FD8  6E0A               	movwf	(??___fleq+1)^0,c
  6719  002FDA  0E80               	movlw	128
  6720  002FDC  1407               	andwf	(___fleq@ff2+2)^0,w,c
  6721  002FDE  6E0B               	movwf	(??___fleq+2)^0,c
  6722  002FE0  0E7F               	movlw	127
  6723  002FE2  1408               	andwf	(___fleq@ff2+3)^0,w,c
  6724  002FE4  6E0C               	movwf	(??___fleq+3)^0,c
  6725  002FE6  5009               	movf	??___fleq^0,w,c
  6726  002FE8  100A               	iorwf	(??___fleq+1)^0,w,c
  6727  002FEA  100B               	iorwf	(??___fleq+2)^0,w,c
  6728  002FEC  100C               	iorwf	(??___fleq+3)^0,w,c
  6729  002FEE  A4D8               	btfss	status,2,c
  6730  002FF0  EFFC  F017         	goto	u3301
  6731  002FF4  EFFE  F017         	goto	u3300
  6732  002FF8                     u3301:
  6733  002FF8  EF06  F018         	goto	l3026
  6734  002FFC                     u3300:
  6735  002FFC  0E00               	movlw	0
  6736  002FFE  6E05               	movwf	___fleq@ff2^0,c
  6737  003000  0E00               	movlw	0
  6738  003002  6E06               	movwf	(___fleq@ff2+1)^0,c
  6739  003004  0E00               	movlw	0
  6740  003006  6E07               	movwf	(___fleq@ff2+2)^0,c
  6741  003008  0E00               	movlw	0
  6742  00300A  6E08               	movwf	(___fleq@ff2+3)^0,c
  6743  00300C                     l3026:
  6744  00300C  5005               	movf	___fleq@ff2^0,w,c
  6745  00300E  1801               	xorwf	___fleq@ff1^0,w,c
  6746  003010  E10F               	bnz	u3310
  6747  003012  5006               	movf	(___fleq@ff2+1)^0,w,c
  6748  003014  1802               	xorwf	(___fleq@ff1+1)^0,w,c
  6749  003016  E10C               	bnz	u3310
  6750  003018  5007               	movf	(___fleq@ff2+2)^0,w,c
  6751  00301A  1803               	xorwf	(___fleq@ff1+2)^0,w,c
  6752  00301C  E109               	bnz	u3310
  6753  00301E  5008               	movf	(___fleq@ff2+3)^0,w,c
  6754  003020  1804               	xorwf	(___fleq@ff1+3)^0,w,c
  6755  003022  B4D8               	btfsc	status,2,c
  6756  003024  EF16  F018         	goto	u3311
  6757  003028  EF18  F018         	goto	u3310
  6758  00302C                     u3311:
  6759  00302C  EF1B  F018         	goto	l3030
  6760  003030                     u3310:
  6761  003030  90D8               	bcf	status,0,c
  6762  003032  EF1C  F018         	goto	l374
  6763  003036                     l3030:
  6764  003036  80D8               	bsf	status,0,c
  6765  003038                     l374:
  6766  003038  0012               	return		;funcret
  6767  00303A                     __end_of___fleq:
  6768                           	callstack 0
  6769                           
  6770 ;; *************** function ___fldiv *****************
  6771 ;; Defined at:
  6772 ;;		line 11 in file "C:\Program Files\Microchip\xc8\v2.20\pic\sources\c99\common\sprcdiv.c"
  6773 ;; Parameters:    Size  Location     Type
  6774 ;;  b               4   25[COMRAM] unsigned char 
  6775 ;;  a               4   29[COMRAM] unsigned char 
  6776 ;; Auto vars:     Size  Location     Type
  6777 ;;  grs             4   44[COMRAM] unsigned long 
  6778 ;;  rem             4   37[COMRAM] unsigned long 
  6779 ;;  new_exp         2   42[COMRAM] short 
  6780 ;;  aexp            1   49[COMRAM] unsigned char 
  6781 ;;  bexp            1   48[COMRAM] unsigned char 
  6782 ;;  sign            1   41[COMRAM] unsigned char 
  6783 ;; Return value:  Size  Location     Type
  6784 ;;                  4   25[COMRAM] unsigned char 
  6785 ;; Registers used:
  6786 ;;		wreg, status,2, status,0
  6787 ;; Tracked objects:
  6788 ;;		On entry : 0/0
  6789 ;;		On exit  : 0/0
  6790 ;;		Unchanged: 0/0
  6791 ;; Data sizes:     COMRAM   BANK0   BANK1   BANK2   BANK3   BANK4   BANK5   BANK6   BANK7
  6792 ;;      Params:         8       0       0       0       0       0       0       0       0
  6793 ;;      Locals:        13       0       0       0       0       0       0       0       0
  6794 ;;      Temps:          4       0       0       0       0       0       0       0       0
  6795 ;;      Totals:        25       0       0       0       0       0       0       0       0
  6796 ;;Total ram usage:       25 bytes
  6797 ;; Hardware stack levels used:    1
  6798 ;; This function calls:
  6799 ;;		Nothing
  6800 ;; This function is called by:
  6801 ;;		_Ciclo_Util
  6802 ;;		_efgtoa
  6803 ;; This function uses a non-reentrant model
  6804 ;;
  6805                           
  6806                           	psect	text29
  6807  001CCC                     __ptext29:
  6808                           	callstack 0
  6809  001CCC                     ___fldiv:
  6810                           	callstack 25
  6811  001CCC  501D               	movf	(___fldiv@b+3)^0,w,c
  6812  001CCE  0B80               	andlw	128
  6813  001CD0  6E2A               	movwf	___fldiv@sign^0,c
  6814  001CD2  501D               	movf	(___fldiv@b+3)^0,w,c
  6815  001CD4  241D               	addwf	(___fldiv@b+3)^0,w,c
  6816  001CD6  6E31               	movwf	___fldiv@bexp^0,c
  6817  001CD8  AE1C               	btfss	(___fldiv@b+2)^0,7,c
  6818  001CDA  EF71  F00E         	goto	u2751
  6819  001CDE  EF73  F00E         	goto	u2750
  6820  001CE2                     u2751:
  6821  001CE2  EF74  F00E         	goto	l2670
  6822  001CE6                     u2750:
  6823  001CE6  8031               	bsf	___fldiv@bexp^0,0,c
  6824  001CE8                     l2670:
  6825  001CE8  5031               	movf	___fldiv@bexp^0,w,c
  6826  001CEA  B4D8               	btfsc	status,2,c
  6827  001CEC  EF7A  F00E         	goto	u2761
  6828  001CF0  EF7C  F00E         	goto	u2760
  6829  001CF4                     u2761:
  6830  001CF4  EF91  F00E         	goto	l2680
  6831  001CF8                     u2760:
  6832  001CF8  2831               	incf	___fldiv@bexp^0,w,c
  6833  001CFA  A4D8               	btfss	status,2,c
  6834  001CFC  EF82  F00E         	goto	u2771
  6835  001D00  EF84  F00E         	goto	u2770
  6836  001D04                     u2771:
  6837  001D04  EF8C  F00E         	goto	l2676
  6838  001D08                     u2770:
  6839  001D08  0E00               	movlw	0
  6840  001D0A  6E1A               	movwf	___fldiv@b^0,c
  6841  001D0C  0E00               	movlw	0
  6842  001D0E  6E1B               	movwf	(___fldiv@b+1)^0,c
  6843  001D10  0E00               	movlw	0
  6844  001D12  6E1C               	movwf	(___fldiv@b+2)^0,c
  6845  001D14  0E00               	movlw	0
  6846  001D16  6E1D               	movwf	(___fldiv@b+3)^0,c
  6847  001D18                     l2676:
  6848  001D18  8E1C               	bsf	(___fldiv@b+2)^0,7,c
  6849  001D1A  0E00               	movlw	0
  6850  001D1C  6E1D               	movwf	(___fldiv@b+3)^0,c
  6851  001D1E  EF99  F00E         	goto	l2682
  6852  001D22                     l2680:
  6853  001D22  0E00               	movlw	0
  6854  001D24  6E1A               	movwf	___fldiv@b^0,c
  6855  001D26  0E00               	movlw	0
  6856  001D28  6E1B               	movwf	(___fldiv@b+1)^0,c
  6857  001D2A  0E00               	movlw	0
  6858  001D2C  6E1C               	movwf	(___fldiv@b+2)^0,c
  6859  001D2E  0E00               	movlw	0
  6860  001D30  6E1D               	movwf	(___fldiv@b+3)^0,c
  6861  001D32                     l2682:
  6862  001D32  5021               	movf	(___fldiv@a+3)^0,w,c
  6863  001D34  0B80               	andlw	128
  6864  001D36  1A2A               	xorwf	___fldiv@sign^0,f,c
  6865  001D38  5021               	movf	(___fldiv@a+3)^0,w,c
  6866  001D3A  2421               	addwf	(___fldiv@a+3)^0,w,c
  6867  001D3C  6E32               	movwf	___fldiv@aexp^0,c
  6868  001D3E  AE20               	btfss	(___fldiv@a+2)^0,7,c
  6869  001D40  EFA4  F00E         	goto	u2781
  6870  001D44  EFA6  F00E         	goto	u2780
  6871  001D48                     u2781:
  6872  001D48  EFA7  F00E         	goto	l2690
  6873  001D4C                     u2780:
  6874  001D4C  8032               	bsf	___fldiv@aexp^0,0,c
  6875  001D4E                     l2690:
  6876  001D4E  5032               	movf	___fldiv@aexp^0,w,c
  6877  001D50  B4D8               	btfsc	status,2,c
  6878  001D52  EFAD  F00E         	goto	u2791
  6879  001D56  EFAF  F00E         	goto	u2790
  6880  001D5A                     u2791:
  6881  001D5A  EFC4  F00E         	goto	l2700
  6882  001D5E                     u2790:
  6883  001D5E  2832               	incf	___fldiv@aexp^0,w,c
  6884  001D60  A4D8               	btfss	status,2,c
  6885  001D62  EFB5  F00E         	goto	u2801
  6886  001D66  EFB7  F00E         	goto	u2800
  6887  001D6A                     u2801:
  6888  001D6A  EFBF  F00E         	goto	l2696
  6889  001D6E                     u2800:
  6890  001D6E  0E00               	movlw	0
  6891  001D70  6E1E               	movwf	___fldiv@a^0,c
  6892  001D72  0E00               	movlw	0
  6893  001D74  6E1F               	movwf	(___fldiv@a+1)^0,c
  6894  001D76  0E00               	movlw	0
  6895  001D78  6E20               	movwf	(___fldiv@a+2)^0,c
  6896  001D7A  0E00               	movlw	0
  6897  001D7C  6E21               	movwf	(___fldiv@a+3)^0,c
  6898  001D7E                     l2696:
  6899  001D7E  8E20               	bsf	(___fldiv@a+2)^0,7,c
  6900  001D80  0E00               	movlw	0
  6901  001D82  6E21               	movwf	(___fldiv@a+3)^0,c
  6902  001D84  EFCC  F00E         	goto	l2702
  6903  001D88                     l2700:
  6904  001D88  0E00               	movlw	0
  6905  001D8A  6E1E               	movwf	___fldiv@a^0,c
  6906  001D8C  0E00               	movlw	0
  6907  001D8E  6E1F               	movwf	(___fldiv@a+1)^0,c
  6908  001D90  0E00               	movlw	0
  6909  001D92  6E20               	movwf	(___fldiv@a+2)^0,c
  6910  001D94  0E00               	movlw	0
  6911  001D96  6E21               	movwf	(___fldiv@a+3)^0,c
  6912  001D98                     l2702:
  6913  001D98  501E               	movf	___fldiv@a^0,w,c
  6914  001D9A  101F               	iorwf	(___fldiv@a+1)^0,w,c
  6915  001D9C  1020               	iorwf	(___fldiv@a+2)^0,w,c
  6916  001D9E  1021               	iorwf	(___fldiv@a+3)^0,w,c
  6917  001DA0  A4D8               	btfss	status,2,c
  6918  001DA2  EFD5  F00E         	goto	u2811
  6919  001DA6  EFD7  F00E         	goto	u2810
  6920  001DAA                     u2811:
  6921  001DAA  EFEF  F00E         	goto	l2714
  6922  001DAE                     u2810:
  6923  001DAE  0E00               	movlw	0
  6924  001DB0  6E1A               	movwf	___fldiv@b^0,c
  6925  001DB2  0E00               	movlw	0
  6926  001DB4  6E1B               	movwf	(___fldiv@b+1)^0,c
  6927  001DB6  0E00               	movlw	0
  6928  001DB8  6E1C               	movwf	(___fldiv@b+2)^0,c
  6929  001DBA  0E00               	movlw	0
  6930  001DBC  6E1D               	movwf	(___fldiv@b+3)^0,c
  6931  001DBE  0E80               	movlw	128
  6932  001DC0  121C               	iorwf	(___fldiv@b+2)^0,f,c
  6933  001DC2  0E7F               	movlw	127
  6934  001DC4  121D               	iorwf	(___fldiv@b+3)^0,f,c
  6935  001DC6                     l2708:
  6936  001DC6  502A               	movf	___fldiv@sign^0,w,c
  6937  001DC8  121D               	iorwf	(___fldiv@b+3)^0,f,c
  6938  001DCA  C01A  F01A         	movff	___fldiv@b,?___fldiv
  6939  001DCE  C01B  F01B         	movff	___fldiv@b+1,?___fldiv+1
  6940  001DD2  C01C  F01C         	movff	___fldiv@b+2,?___fldiv+2
  6941  001DD6  C01D  F01D         	movff	___fldiv@b+3,?___fldiv+3
  6942  001DDA  EF32  F010         	goto	l697
  6943  001DDE                     l2714:
  6944  001DDE  5031               	movf	___fldiv@bexp^0,w,c
  6945  001DE0  A4D8               	btfss	status,2,c
  6946  001DE2  EFF5  F00E         	goto	u2821
  6947  001DE6  EFF7  F00E         	goto	u2820
  6948  001DEA                     u2821:
  6949  001DEA  EF01  F00F         	goto	l2722
  6950  001DEE                     u2820:
  6951  001DEE  0E00               	movlw	0
  6952  001DF0  6E1A               	movwf	?___fldiv^0,c
  6953  001DF2  0E00               	movlw	0
  6954  001DF4  6E1B               	movwf	(?___fldiv+1)^0,c
  6955  001DF6  0E00               	movlw	0
  6956  001DF8  6E1C               	movwf	(?___fldiv+2)^0,c
  6957  001DFA  0E00               	movlw	0
  6958  001DFC  6E1D               	movwf	(?___fldiv+3)^0,c
  6959  001DFE  EF32  F010         	goto	l697
  6960  001E02                     l2722:
  6961  001E02  5032               	movf	___fldiv@aexp^0,w,c
  6962  001E04  C031  F022         	movff	___fldiv@bexp,??___fldiv
  6963  001E08  6A23               	clrf	(??___fldiv+1)^0,c
  6964  001E0A  5E22               	subwf	??___fldiv^0,f,c
  6965  001E0C  0E00               	movlw	0
  6966  001E0E  5A23               	subwfb	(??___fldiv+1)^0,f,c
  6967  001E10  0E7F               	movlw	127
  6968  001E12  2422               	addwf	??___fldiv^0,w,c
  6969  001E14  6E2B               	movwf	___fldiv@new_exp^0,c
  6970  001E16  0E00               	movlw	0
  6971  001E18  2023               	addwfc	(??___fldiv+1)^0,w,c
  6972  001E1A  6E2C               	movwf	(___fldiv@new_exp+1)^0,c
  6973  001E1C  C01A  F026         	movff	___fldiv@b,___fldiv@rem
  6974  001E20  C01B  F027         	movff	___fldiv@b+1,___fldiv@rem+1
  6975  001E24  C01C  F028         	movff	___fldiv@b+2,___fldiv@rem+2
  6976  001E28  C01D  F029         	movff	___fldiv@b+3,___fldiv@rem+3
  6977  001E2C  0E00               	movlw	0
  6978  001E2E  6E1A               	movwf	___fldiv@b^0,c
  6979  001E30  0E00               	movlw	0
  6980  001E32  6E1B               	movwf	(___fldiv@b+1)^0,c
  6981  001E34  0E00               	movlw	0
  6982  001E36  6E1C               	movwf	(___fldiv@b+2)^0,c
  6983  001E38  0E00               	movlw	0
  6984  001E3A  6E1D               	movwf	(___fldiv@b+3)^0,c
  6985  001E3C  0E00               	movlw	0
  6986  001E3E  6E2D               	movwf	___fldiv@grs^0,c
  6987  001E40  0E00               	movlw	0
  6988  001E42  6E2E               	movwf	(___fldiv@grs+1)^0,c
  6989  001E44  0E00               	movlw	0
  6990  001E46  6E2F               	movwf	(___fldiv@grs+2)^0,c
  6991  001E48  0E00               	movlw	0
  6992  001E4A  6E30               	movwf	(___fldiv@grs+3)^0,c
  6993  001E4C  0E00               	movlw	0
  6994  001E4E  6E32               	movwf	___fldiv@aexp^0,c
  6995  001E50  EF62  F00F         	goto	l699
  6996  001E54                     l2732:
  6997  001E54  5032               	movf	___fldiv@aexp^0,w,c
  6998  001E56  B4D8               	btfsc	status,2,c
  6999  001E58  EF30  F00F         	goto	u2831
  7000  001E5C  EF32  F00F         	goto	u2830
  7001  001E60                     u2831:
  7002  001E60  EF49  F00F         	goto	l2740
  7003  001E64                     u2830:
  7004  001E64  90D8               	bcf	status,0,c
  7005  001E66  3626               	rlcf	___fldiv@rem^0,f,c
  7006  001E68  3627               	rlcf	(___fldiv@rem+1)^0,f,c
  7007  001E6A  3628               	rlcf	(___fldiv@rem+2)^0,f,c
  7008  001E6C  3629               	rlcf	(___fldiv@rem+3)^0,f,c
  7009  001E6E  90D8               	bcf	status,0,c
  7010  001E70  361A               	rlcf	___fldiv@b^0,f,c
  7011  001E72  361B               	rlcf	(___fldiv@b+1)^0,f,c
  7012  001E74  361C               	rlcf	(___fldiv@b+2)^0,f,c
  7013  001E76  361D               	rlcf	(___fldiv@b+3)^0,f,c
  7014  001E78  AE30               	btfss	(___fldiv@grs+3)^0,7,c
  7015  001E7A  EF41  F00F         	goto	u2841
  7016  001E7E  EF43  F00F         	goto	u2840
  7017  001E82                     u2841:
  7018  001E82  EF44  F00F         	goto	l702
  7019  001E86                     u2840:
  7020  001E86  801A               	bsf	___fldiv@b^0,0,c
  7021  001E88                     l702:
  7022  001E88  90D8               	bcf	status,0,c
  7023  001E8A  362D               	rlcf	___fldiv@grs^0,f,c
  7024  001E8C  362E               	rlcf	(___fldiv@grs+1)^0,f,c
  7025  001E8E  362F               	rlcf	(___fldiv@grs+2)^0,f,c
  7026  001E90  3630               	rlcf	(___fldiv@grs+3)^0,f,c
  7027  001E92                     l2740:
  7028  001E92  501E               	movf	___fldiv@a^0,w,c
  7029  001E94  5C26               	subwf	___fldiv@rem^0,w,c
  7030  001E96  501F               	movf	(___fldiv@a+1)^0,w,c
  7031  001E98  5827               	subwfb	(___fldiv@rem+1)^0,w,c
  7032  001E9A  5020               	movf	(___fldiv@a+2)^0,w,c
  7033  001E9C  5828               	subwfb	(___fldiv@rem+2)^0,w,c
  7034  001E9E  5021               	movf	(___fldiv@a+3)^0,w,c
  7035  001EA0  5829               	subwfb	(___fldiv@rem+3)^0,w,c
  7036  001EA2  A0D8               	btfss	status,0,c
  7037  001EA4  EF56  F00F         	goto	u2851
  7038  001EA8  EF58  F00F         	goto	u2850
  7039  001EAC                     u2851:
  7040  001EAC  EF61  F00F         	goto	l2746
  7041  001EB0                     u2850:
  7042  001EB0  8C30               	bsf	(___fldiv@grs+3)^0,6,c
  7043  001EB2  501E               	movf	___fldiv@a^0,w,c
  7044  001EB4  5E26               	subwf	___fldiv@rem^0,f,c
  7045  001EB6  501F               	movf	(___fldiv@a+1)^0,w,c
  7046  001EB8  5A27               	subwfb	(___fldiv@rem+1)^0,f,c
  7047  001EBA  5020               	movf	(___fldiv@a+2)^0,w,c
  7048  001EBC  5A28               	subwfb	(___fldiv@rem+2)^0,f,c
  7049  001EBE  5021               	movf	(___fldiv@a+3)^0,w,c
  7050  001EC0  5A29               	subwfb	(___fldiv@rem+3)^0,f,c
  7051  001EC2                     l2746:
  7052  001EC2  2A32               	incf	___fldiv@aexp^0,f,c
  7053  001EC4                     l699:
  7054  001EC4  0E19               	movlw	25
  7055  001EC6  6432               	cpfsgt	___fldiv@aexp^0,c
  7056  001EC8  EF68  F00F         	goto	u2861
  7057  001ECC  EF6A  F00F         	goto	u2860
  7058  001ED0                     u2861:
  7059  001ED0  EF2A  F00F         	goto	l2732
  7060  001ED4                     u2860:
  7061  001ED4  5026               	movf	___fldiv@rem^0,w,c
  7062  001ED6  1027               	iorwf	(___fldiv@rem+1)^0,w,c
  7063  001ED8  1028               	iorwf	(___fldiv@rem+2)^0,w,c
  7064  001EDA  1029               	iorwf	(___fldiv@rem+3)^0,w,c
  7065  001EDC  B4D8               	btfsc	status,2,c
  7066  001EDE  EF73  F00F         	goto	u2871
  7067  001EE2  EF75  F00F         	goto	u2870
  7068  001EE6                     u2871:
  7069  001EE6  EF8D  F00F         	goto	l2758
  7070  001EEA                     u2870:
  7071  001EEA  802D               	bsf	___fldiv@grs^0,0,c
  7072  001EEC  EF8D  F00F         	goto	l2758
  7073  001EF0                     l2752:
  7074  001EF0  90D8               	bcf	status,0,c
  7075  001EF2  361A               	rlcf	___fldiv@b^0,f,c
  7076  001EF4  361B               	rlcf	(___fldiv@b+1)^0,f,c
  7077  001EF6  361C               	rlcf	(___fldiv@b+2)^0,f,c
  7078  001EF8  361D               	rlcf	(___fldiv@b+3)^0,f,c
  7079  001EFA  AE30               	btfss	(___fldiv@grs+3)^0,7,c
  7080  001EFC  EF82  F00F         	goto	u2881
  7081  001F00  EF84  F00F         	goto	u2880
  7082  001F04                     u2881:
  7083  001F04  EF85  F00F         	goto	l708
  7084  001F08                     u2880:
  7085  001F08  801A               	bsf	___fldiv@b^0,0,c
  7086  001F0A                     l708:
  7087  001F0A  90D8               	bcf	status,0,c
  7088  001F0C  362D               	rlcf	___fldiv@grs^0,f,c
  7089  001F0E  362E               	rlcf	(___fldiv@grs+1)^0,f,c
  7090  001F10  362F               	rlcf	(___fldiv@grs+2)^0,f,c
  7091  001F12  3630               	rlcf	(___fldiv@grs+3)^0,f,c
  7092  001F14  062B               	decf	___fldiv@new_exp^0,f,c
  7093  001F16  A0D8               	btfss	status,0,c
  7094  001F18  062C               	decf	(___fldiv@new_exp+1)^0,f,c
  7095  001F1A                     l2758:
  7096  001F1A  AE1C               	btfss	(___fldiv@b+2)^0,7,c
  7097  001F1C  EF92  F00F         	goto	u2891
  7098  001F20  EF94  F00F         	goto	u2890
  7099  001F24                     u2891:
  7100  001F24  EF78  F00F         	goto	l2752
  7101  001F28                     u2890:
  7102  001F28  0E00               	movlw	0
  7103  001F2A  6E32               	movwf	___fldiv@aexp^0,c
  7104  001F2C  AE30               	btfss	(___fldiv@grs+3)^0,7,c
  7105  001F2E  EF9B  F00F         	goto	u2901
  7106  001F32  EF9D  F00F         	goto	u2900
  7107  001F36                     u2901:
  7108  001F36  EFC1  F00F         	goto	l710
  7109  001F3A                     u2900:
  7110  001F3A  0EFF               	movlw	255
  7111  001F3C  142D               	andwf	___fldiv@grs^0,w,c
  7112  001F3E  6E22               	movwf	??___fldiv^0,c
  7113  001F40  0EFF               	movlw	255
  7114  001F42  142E               	andwf	(___fldiv@grs+1)^0,w,c
  7115  001F44  6E23               	movwf	(??___fldiv+1)^0,c
  7116  001F46  0EFF               	movlw	255
  7117  001F48  142F               	andwf	(___fldiv@grs+2)^0,w,c
  7118  001F4A  6E24               	movwf	(??___fldiv+2)^0,c
  7119  001F4C  0E7F               	movlw	127
  7120  001F4E  1430               	andwf	(___fldiv@grs+3)^0,w,c
  7121  001F50  6E25               	movwf	(??___fldiv+3)^0,c
  7122  001F52  5022               	movf	??___fldiv^0,w,c
  7123  001F54  1023               	iorwf	(??___fldiv+1)^0,w,c
  7124  001F56  1024               	iorwf	(??___fldiv+2)^0,w,c
  7125  001F58  1025               	iorwf	(??___fldiv+3)^0,w,c
  7126  001F5A  B4D8               	btfsc	status,2,c
  7127  001F5C  EFB2  F00F         	goto	u2911
  7128  001F60  EFB4  F00F         	goto	u2910
  7129  001F64                     u2911:
  7130  001F64  EFB8  F00F         	goto	l711
  7131  001F68                     u2910:
  7132  001F68                     l2766:
  7133  001F68  0E01               	movlw	1
  7134  001F6A  6E32               	movwf	___fldiv@aexp^0,c
  7135  001F6C  EFC1  F00F         	goto	l710
  7136  001F70                     l711:
  7137  001F70  A01A               	btfss	___fldiv@b^0,0,c
  7138  001F72  EFBD  F00F         	goto	u2921
  7139  001F76  EFBF  F00F         	goto	u2920
  7140  001F7A                     u2921:
  7141  001F7A  EFC1  F00F         	goto	l710
  7142  001F7E                     u2920:
  7143  001F7E  EFB4  F00F         	goto	l2766
  7144  001F82                     l710:
  7145  001F82  5032               	movf	___fldiv@aexp^0,w,c
  7146  001F84  B4D8               	btfsc	status,2,c
  7147  001F86  EFC7  F00F         	goto	u2931
  7148  001F8A  EFC9  F00F         	goto	u2930
  7149  001F8E                     u2931:
  7150  001F8E  EFED  F00F         	goto	l2778
  7151  001F92                     u2930:
  7152  001F92  0E01               	movlw	1
  7153  001F94  261A               	addwf	___fldiv@b^0,f,c
  7154  001F96  0E00               	movlw	0
  7155  001F98  221B               	addwfc	(___fldiv@b+1)^0,f,c
  7156  001F9A  221C               	addwfc	(___fldiv@b+2)^0,f,c
  7157  001F9C  221D               	addwfc	(___fldiv@b+3)^0,f,c
  7158  001F9E  A01D               	btfss	(___fldiv@b+3)^0,0,c
  7159  001FA0  EFD4  F00F         	goto	u2941
  7160  001FA4  EFD6  F00F         	goto	u2940
  7161  001FA8                     u2941:
  7162  001FA8  EFED  F00F         	goto	l2778
  7163  001FAC                     u2940:
  7164  001FAC  C01A  F022         	movff	___fldiv@b,??___fldiv
  7165  001FB0  C01B  F023         	movff	___fldiv@b+1,??___fldiv+1
  7166  001FB4  C01C  F024         	movff	___fldiv@b+2,??___fldiv+2
  7167  001FB8  C01D  F025         	movff	___fldiv@b+3,??___fldiv+3
  7168  001FBC  3425               	rlcf	(??___fldiv+3)^0,w,c
  7169  001FBE  3225               	rrcf	(??___fldiv+3)^0,f,c
  7170  001FC0  3224               	rrcf	(??___fldiv+2)^0,f,c
  7171  001FC2  3223               	rrcf	(??___fldiv+1)^0,f,c
  7172  001FC4  3222               	rrcf	??___fldiv^0,f,c
  7173  001FC6  C022  F01A         	movff	??___fldiv,___fldiv@b
  7174  001FCA  C023  F01B         	movff	??___fldiv+1,___fldiv@b+1
  7175  001FCE  C024  F01C         	movff	??___fldiv+2,___fldiv@b+2
  7176  001FD2  C025  F01D         	movff	??___fldiv+3,___fldiv@b+3
  7177  001FD6  4A2B               	infsnz	___fldiv@new_exp^0,f,c
  7178  001FD8  2A2C               	incf	(___fldiv@new_exp+1)^0,f,c
  7179  001FDA                     l2778:
  7180  001FDA  BE2C               	btfsc	(___fldiv@new_exp+1)^0,7,c
  7181  001FDC  EFF8  F00F         	goto	u2951
  7182  001FE0  502C               	movf	(___fldiv@new_exp+1)^0,w,c
  7183  001FE2  E108               	bnz	u2950
  7184  001FE4  282B               	incf	___fldiv@new_exp^0,w,c
  7185  001FE6  A0D8               	btfss	status,0,c
  7186  001FE8  EFF8  F00F         	goto	u2951
  7187  001FEC  EFFA  F00F         	goto	u2950
  7188  001FF0                     u2951:
  7189  001FF0  EF05  F010         	goto	l2782
  7190  001FF4                     u2950:
  7191  001FF4  0E00               	movlw	0
  7192  001FF6  6E2C               	movwf	(___fldiv@new_exp+1)^0,c
  7193  001FF8  682B               	setf	___fldiv@new_exp^0,c
  7194  001FFA  0E00               	movlw	0
  7195  001FFC  6E1A               	movwf	___fldiv@b^0,c
  7196  001FFE  0E00               	movlw	0
  7197  002000  6E1B               	movwf	(___fldiv@b+1)^0,c
  7198  002002  0E00               	movlw	0
  7199  002004  6E1C               	movwf	(___fldiv@b+2)^0,c
  7200  002006  0E00               	movlw	0
  7201  002008  6E1D               	movwf	(___fldiv@b+3)^0,c
  7202  00200A                     l2782:
  7203  00200A  BE2C               	btfsc	(___fldiv@new_exp+1)^0,7,c
  7204  00200C  EF12  F010         	goto	u2960
  7205  002010  502C               	movf	(___fldiv@new_exp+1)^0,w,c
  7206  002012  E106               	bnz	u2961
  7207  002014  042B               	decf	___fldiv@new_exp^0,w,c
  7208  002016  B0D8               	btfsc	status,0,c
  7209  002018  EF10  F010         	goto	u2961
  7210  00201C  EF12  F010         	goto	u2960
  7211  002020                     u2961:
  7212  002020  EF20  F010         	goto	l2786
  7213  002024                     u2960:
  7214  002024  0E00               	movlw	0
  7215  002026  6E2C               	movwf	(___fldiv@new_exp+1)^0,c
  7216  002028  0E00               	movlw	0
  7217  00202A  6E2B               	movwf	___fldiv@new_exp^0,c
  7218  00202C  0E00               	movlw	0
  7219  00202E  6E1A               	movwf	___fldiv@b^0,c
  7220  002030  0E00               	movlw	0
  7221  002032  6E1B               	movwf	(___fldiv@b+1)^0,c
  7222  002034  0E00               	movlw	0
  7223  002036  6E1C               	movwf	(___fldiv@b+2)^0,c
  7224  002038  0E00               	movlw	0
  7225  00203A  6E1D               	movwf	(___fldiv@b+3)^0,c
  7226  00203C  0E00               	movlw	0
  7227  00203E  6E2A               	movwf	___fldiv@sign^0,c
  7228  002040                     l2786:
  7229  002040  C02B  F031         	movff	___fldiv@new_exp,___fldiv@bexp
  7230  002044  A031               	btfss	___fldiv@bexp^0,0,c
  7231  002046  EF27  F010         	goto	u2971
  7232  00204A  EF29  F010         	goto	u2970
  7233  00204E                     u2971:
  7234  00204E  EF2C  F010         	goto	l2792
  7235  002052                     u2970:
  7236  002052  8E1C               	bsf	(___fldiv@b+2)^0,7,c
  7237  002054  EF2D  F010         	goto	l2794
  7238  002058                     l2792:
  7239  002058  9E1C               	bcf	(___fldiv@b+2)^0,7,c
  7240  00205A                     l2794:
  7241  00205A  90D8               	bcf	status,0,c
  7242  00205C  3031               	rrcf	___fldiv@bexp^0,w,c
  7243  00205E  6E1D               	movwf	(___fldiv@b+3)^0,c
  7244  002060  EFE3  F00E         	goto	l2708
  7245  002064                     l697:
  7246  002064  0012               	return		;funcret
  7247  002066                     __end_of___fldiv:
  7248                           	callstack 0
  7249                           
  7250 ;; *************** function ___awmod *****************
  7251 ;; Defined at:
  7252 ;;		line 7 in file "C:\Program Files\Microchip\xc8\v2.20\pic\sources\c99\common\awmod.c"
  7253 ;; Parameters:    Size  Location     Type
  7254 ;;  dividend        2    0[COMRAM] int 
  7255 ;;  divisor         2    2[COMRAM] int 
  7256 ;; Auto vars:     Size  Location     Type
  7257 ;;  sign            1    5[COMRAM] unsigned char 
  7258 ;;  counter         1    4[COMRAM] unsigned char 
  7259 ;; Return value:  Size  Location     Type
  7260 ;;                  2    0[COMRAM] int 
  7261 ;; Registers used:
  7262 ;;		wreg, status,2, status,0
  7263 ;; Tracked objects:
  7264 ;;		On entry : 0/0
  7265 ;;		On exit  : 0/0
  7266 ;;		Unchanged: 0/0
  7267 ;; Data sizes:     COMRAM   BANK0   BANK1   BANK2   BANK3   BANK4   BANK5   BANK6   BANK7
  7268 ;;      Params:         4       0       0       0       0       0       0       0       0
  7269 ;;      Locals:         2       0       0       0       0       0       0       0       0
  7270 ;;      Temps:          0       0       0       0       0       0       0       0       0
  7271 ;;      Totals:         6       0       0       0       0       0       0       0       0
  7272 ;;Total ram usage:        6 bytes
  7273 ;; Hardware stack levels used:    1
  7274 ;; This function calls:
  7275 ;;		Nothing
  7276 ;; This function is called by:
  7277 ;;		_efgtoa
  7278 ;; This function uses a non-reentrant model
  7279 ;;
  7280                           
  7281                           	psect	text30
  7282  002EE0                     __ptext30:
  7283                           	callstack 0
  7284  002EE0                     ___awmod:
  7285                           	callstack 25
  7286  002EE0  0E00               	movlw	0
  7287  002EE2  6E06               	movwf	___awmod@sign^0,c
  7288  002EE4  BE02               	btfsc	(___awmod@dividend+1)^0,7,c
  7289  002EE6  EF79  F017         	goto	u3230
  7290  002EEA  EF77  F017         	goto	u3231
  7291  002EEE                     u3231:
  7292  002EEE  EF7F  F017         	goto	l2990
  7293  002EF2                     u3230:
  7294  002EF2  6C01               	negf	___awmod@dividend^0,c
  7295  002EF4  1E02               	comf	(___awmod@dividend+1)^0,f,c
  7296  002EF6  B0D8               	btfsc	status,0,c
  7297  002EF8  2A02               	incf	(___awmod@dividend+1)^0,f,c
  7298  002EFA  0E01               	movlw	1
  7299  002EFC  6E06               	movwf	___awmod@sign^0,c
  7300  002EFE                     l2990:
  7301  002EFE  BE04               	btfsc	(___awmod@divisor+1)^0,7,c
  7302  002F00  EF86  F017         	goto	u3240
  7303  002F04  EF84  F017         	goto	u3241
  7304  002F08                     u3241:
  7305  002F08  EF8A  F017         	goto	l2994
  7306  002F0C                     u3240:
  7307  002F0C  6C03               	negf	___awmod@divisor^0,c
  7308  002F0E  1E04               	comf	(___awmod@divisor+1)^0,f,c
  7309  002F10  B0D8               	btfsc	status,0,c
  7310  002F12  2A04               	incf	(___awmod@divisor+1)^0,f,c
  7311  002F14                     l2994:
  7312  002F14  5003               	movf	___awmod@divisor^0,w,c
  7313  002F16  1004               	iorwf	(___awmod@divisor+1)^0,w,c
  7314  002F18  B4D8               	btfsc	status,2,c
  7315  002F1A  EF91  F017         	goto	u3251
  7316  002F1E  EF93  F017         	goto	u3250
  7317  002F22                     u3251:
  7318  002F22  EFB7  F017         	goto	l3010
  7319  002F26                     u3250:
  7320  002F26  0E01               	movlw	1
  7321  002F28  6E05               	movwf	___awmod@counter^0,c
  7322  002F2A  EF9B  F017         	goto	l3000
  7323  002F2E                     l2998:
  7324  002F2E  90D8               	bcf	status,0,c
  7325  002F30  3603               	rlcf	___awmod@divisor^0,f,c
  7326  002F32  3604               	rlcf	(___awmod@divisor+1)^0,f,c
  7327  002F34  2A05               	incf	___awmod@counter^0,f,c
  7328  002F36                     l3000:
  7329  002F36  AE04               	btfss	(___awmod@divisor+1)^0,7,c
  7330  002F38  EFA0  F017         	goto	u3261
  7331  002F3C  EFA2  F017         	goto	u3260
  7332  002F40                     u3261:
  7333  002F40  EF97  F017         	goto	l2998
  7334  002F44                     u3260:
  7335  002F44                     l3002:
  7336  002F44  5003               	movf	___awmod@divisor^0,w,c
  7337  002F46  5C01               	subwf	___awmod@dividend^0,w,c
  7338  002F48  5004               	movf	(___awmod@divisor+1)^0,w,c
  7339  002F4A  5802               	subwfb	(___awmod@dividend+1)^0,w,c
  7340  002F4C  A0D8               	btfss	status,0,c
  7341  002F4E  EFAB  F017         	goto	u3271
  7342  002F52  EFAD  F017         	goto	u3270
  7343  002F56                     u3271:
  7344  002F56  EFB1  F017         	goto	l3006
  7345  002F5A                     u3270:
  7346  002F5A  5003               	movf	___awmod@divisor^0,w,c
  7347  002F5C  5E01               	subwf	___awmod@dividend^0,f,c
  7348  002F5E  5004               	movf	(___awmod@divisor+1)^0,w,c
  7349  002F60  5A02               	subwfb	(___awmod@dividend+1)^0,f,c
  7350  002F62                     l3006:
  7351  002F62  90D8               	bcf	status,0,c
  7352  002F64  3204               	rrcf	(___awmod@divisor+1)^0,f,c
  7353  002F66  3203               	rrcf	___awmod@divisor^0,f,c
  7354  002F68  2E05               	decfsz	___awmod@counter^0,f,c
  7355  002F6A  EFA2  F017         	goto	l3002
  7356  002F6E                     l3010:
  7357  002F6E  5006               	movf	___awmod@sign^0,w,c
  7358  002F70  B4D8               	btfsc	status,2,c
  7359  002F72  EFBD  F017         	goto	u3281
  7360  002F76  EFBF  F017         	goto	u3280
  7361  002F7A                     u3281:
  7362  002F7A  EFC3  F017         	goto	l3014
  7363  002F7E                     u3280:
  7364  002F7E  6C01               	negf	___awmod@dividend^0,c
  7365  002F80  1E02               	comf	(___awmod@dividend+1)^0,f,c
  7366  002F82  B0D8               	btfsc	status,0,c
  7367  002F84  2A02               	incf	(___awmod@dividend+1)^0,f,c
  7368  002F86                     l3014:
  7369  002F86  C001  F001         	movff	___awmod@dividend,?___awmod
  7370  002F8A  C002  F002         	movff	___awmod@dividend+1,?___awmod+1
  7371  002F8E  0012               	return		;funcret
  7372  002F90                     __end_of___awmod:
  7373                           	callstack 0
  7374                           
  7375 ;; *************** function ___awdiv *****************
  7376 ;; Defined at:
  7377 ;;		line 7 in file "C:\Program Files\Microchip\xc8\v2.20\pic\sources\c99\common\awdiv.c"
  7378 ;; Parameters:    Size  Location     Type
  7379 ;;  dividend        2    0[COMRAM] int 
  7380 ;;  divisor         2    2[COMRAM] int 
  7381 ;; Auto vars:     Size  Location     Type
  7382 ;;  quotient        2    6[COMRAM] int 
  7383 ;;  sign            1    5[COMRAM] unsigned char 
  7384 ;;  counter         1    4[COMRAM] unsigned char 
  7385 ;; Return value:  Size  Location     Type
  7386 ;;                  2    0[COMRAM] int 
  7387 ;; Registers used:
  7388 ;;		wreg, status,2, status,0
  7389 ;; Tracked objects:
  7390 ;;		On entry : 0/0
  7391 ;;		On exit  : 0/0
  7392 ;;		Unchanged: 0/0
  7393 ;; Data sizes:     COMRAM   BANK0   BANK1   BANK2   BANK3   BANK4   BANK5   BANK6   BANK7
  7394 ;;      Params:         4       0       0       0       0       0       0       0       0
  7395 ;;      Locals:         4       0       0       0       0       0       0       0       0
  7396 ;;      Temps:          0       0       0       0       0       0       0       0       0
  7397 ;;      Totals:         8       0       0       0       0       0       0       0       0
  7398 ;;Total ram usage:        8 bytes
  7399 ;; Hardware stack levels used:    1
  7400 ;; This function calls:
  7401 ;;		Nothing
  7402 ;; This function is called by:
  7403 ;;		_efgtoa
  7404 ;; This function uses a non-reentrant model
  7405 ;;
  7406                           
  7407                           	psect	text31
  7408  002E1C                     __ptext31:
  7409                           	callstack 0
  7410  002E1C                     ___awdiv:
  7411                           	callstack 25
  7412  002E1C  0E00               	movlw	0
  7413  002E1E  6E06               	movwf	___awdiv@sign^0,c
  7414  002E20  BE04               	btfsc	(___awdiv@divisor+1)^0,7,c
  7415  002E22  EF17  F017         	goto	u3170
  7416  002E26  EF15  F017         	goto	u3171
  7417  002E2A                     u3171:
  7418  002E2A  EF1D  F017         	goto	l2946
  7419  002E2E                     u3170:
  7420  002E2E  6C03               	negf	___awdiv@divisor^0,c
  7421  002E30  1E04               	comf	(___awdiv@divisor+1)^0,f,c
  7422  002E32  B0D8               	btfsc	status,0,c
  7423  002E34  2A04               	incf	(___awdiv@divisor+1)^0,f,c
  7424  002E36  0E01               	movlw	1
  7425  002E38  6E06               	movwf	___awdiv@sign^0,c
  7426  002E3A                     l2946:
  7427  002E3A  BE02               	btfsc	(___awdiv@dividend+1)^0,7,c
  7428  002E3C  EF24  F017         	goto	u3180
  7429  002E40  EF22  F017         	goto	u3181
  7430  002E44                     u3181:
  7431  002E44  EF2A  F017         	goto	l2952
  7432  002E48                     u3180:
  7433  002E48  6C01               	negf	___awdiv@dividend^0,c
  7434  002E4A  1E02               	comf	(___awdiv@dividend+1)^0,f,c
  7435  002E4C  B0D8               	btfsc	status,0,c
  7436  002E4E  2A02               	incf	(___awdiv@dividend+1)^0,f,c
  7437  002E50  0E01               	movlw	1
  7438  002E52  1A06               	xorwf	___awdiv@sign^0,f,c
  7439  002E54                     l2952:
  7440  002E54  0E00               	movlw	0
  7441  002E56  6E08               	movwf	(___awdiv@quotient+1)^0,c
  7442  002E58  0E00               	movlw	0
  7443  002E5A  6E07               	movwf	___awdiv@quotient^0,c
  7444  002E5C  5003               	movf	___awdiv@divisor^0,w,c
  7445  002E5E  1004               	iorwf	(___awdiv@divisor+1)^0,w,c
  7446  002E60  B4D8               	btfsc	status,2,c
  7447  002E62  EF35  F017         	goto	u3191
  7448  002E66  EF37  F017         	goto	u3190
  7449  002E6A                     u3191:
  7450  002E6A  EF5F  F017         	goto	l2974
  7451  002E6E                     u3190:
  7452  002E6E  0E01               	movlw	1
  7453  002E70  6E05               	movwf	___awdiv@counter^0,c
  7454  002E72  EF3F  F017         	goto	l2960
  7455  002E76                     l2958:
  7456  002E76  90D8               	bcf	status,0,c
  7457  002E78  3603               	rlcf	___awdiv@divisor^0,f,c
  7458  002E7A  3604               	rlcf	(___awdiv@divisor+1)^0,f,c
  7459  002E7C  2A05               	incf	___awdiv@counter^0,f,c
  7460  002E7E                     l2960:
  7461  002E7E  AE04               	btfss	(___awdiv@divisor+1)^0,7,c
  7462  002E80  EF44  F017         	goto	u3201
  7463  002E84  EF46  F017         	goto	u3200
  7464  002E88                     u3201:
  7465  002E88  EF3B  F017         	goto	l2958
  7466  002E8C                     u3200:
  7467  002E8C                     l2962:
  7468  002E8C  90D8               	bcf	status,0,c
  7469  002E8E  3607               	rlcf	___awdiv@quotient^0,f,c
  7470  002E90  3608               	rlcf	(___awdiv@quotient+1)^0,f,c
  7471  002E92  5003               	movf	___awdiv@divisor^0,w,c
  7472  002E94  5C01               	subwf	___awdiv@dividend^0,w,c
  7473  002E96  5004               	movf	(___awdiv@divisor+1)^0,w,c
  7474  002E98  5802               	subwfb	(___awdiv@dividend+1)^0,w,c
  7475  002E9A  A0D8               	btfss	status,0,c
  7476  002E9C  EF52  F017         	goto	u3211
  7477  002EA0  EF54  F017         	goto	u3210
  7478  002EA4                     u3211:
  7479  002EA4  EF59  F017         	goto	l2970
  7480  002EA8                     u3210:
  7481  002EA8  5003               	movf	___awdiv@divisor^0,w,c
  7482  002EAA  5E01               	subwf	___awdiv@dividend^0,f,c
  7483  002EAC  5004               	movf	(___awdiv@divisor+1)^0,w,c
  7484  002EAE  5A02               	subwfb	(___awdiv@dividend+1)^0,f,c
  7485  002EB0  8007               	bsf	___awdiv@quotient^0,0,c
  7486  002EB2                     l2970:
  7487  002EB2  90D8               	bcf	status,0,c
  7488  002EB4  3204               	rrcf	(___awdiv@divisor+1)^0,f,c
  7489  002EB6  3203               	rrcf	___awdiv@divisor^0,f,c
  7490  002EB8  2E05               	decfsz	___awdiv@counter^0,f,c
  7491  002EBA  EF46  F017         	goto	l2962
  7492  002EBE                     l2974:
  7493  002EBE  5006               	movf	___awdiv@sign^0,w,c
  7494  002EC0  B4D8               	btfsc	status,2,c
  7495  002EC2  EF65  F017         	goto	u3221
  7496  002EC6  EF67  F017         	goto	u3220
  7497  002ECA                     u3221:
  7498  002ECA  EF6B  F017         	goto	l2978
  7499  002ECE                     u3220:
  7500  002ECE  6C07               	negf	___awdiv@quotient^0,c
  7501  002ED0  1E08               	comf	(___awdiv@quotient+1)^0,f,c
  7502  002ED2  B0D8               	btfsc	status,0,c
  7503  002ED4  2A08               	incf	(___awdiv@quotient+1)^0,f,c
  7504  002ED6                     l2978:
  7505  002ED6  C007  F001         	movff	___awdiv@quotient,?___awdiv
  7506  002EDA  C008  F002         	movff	___awdiv@quotient+1,?___awdiv+1
  7507  002EDE  0012               	return		;funcret
  7508  002EE0                     __end_of___awdiv:
  7509                           	callstack 0
  7510                           
  7511 ;; *************** function _lcd_print *****************
  7512 ;; Defined at:
  7513 ;;		line 86 in file "./LCD.h"
  7514 ;; Parameters:    Size  Location     Type
  7515 ;;  dato            2    2[COMRAM] PTR unsigned char 
  7516 ;;		 -> STR_5(3), STR_4(12), STR_3(10), STR_2(2), 
  7517 ;;		 -> dc(10), 
  7518 ;; Auto vars:     Size  Location     Type
  7519 ;;		None
  7520 ;; Return value:  Size  Location     Type
  7521 ;;                  1    wreg      void 
  7522 ;; Registers used:
  7523 ;;		wreg, fsr1l, fsr1h, status,2, status,0, tblptrl, tblptrh, tblptru, cstack
  7524 ;; Tracked objects:
  7525 ;;		On entry : 0/0
  7526 ;;		On exit  : 0/0
  7527 ;;		Unchanged: 0/0
  7528 ;; Data sizes:     COMRAM   BANK0   BANK1   BANK2   BANK3   BANK4   BANK5   BANK6   BANK7
  7529 ;;      Params:         2       0       0       0       0       0       0       0       0
  7530 ;;      Locals:         0       0       0       0       0       0       0       0       0
  7531 ;;      Temps:          0       0       0       0       0       0       0       0       0
  7532 ;;      Totals:         2       0       0       0       0       0       0       0       0
  7533 ;;Total ram usage:        2 bytes
  7534 ;; Hardware stack levels used:    1
  7535 ;; Hardware stack levels required when called:    2
  7536 ;; This function calls:
  7537 ;;		_lcd_dato
  7538 ;; This function is called by:
  7539 ;;		_Ciclo_Util
  7540 ;;		_main
  7541 ;; This function uses a non-reentrant model
  7542 ;;
  7543                           
  7544                           	psect	text32
  7545  0031FA                     __ptext32:
  7546                           	callstack 0
  7547  0031FA                     _lcd_print:
  7548                           	callstack 28
  7549  0031FA                     
  7550                           ;./LCD.h: 87:     while (*dato)
  7551  0031FA  EF13  F019         	goto	l3618
  7552  0031FE                     l3614:
  7553                           
  7554                           ;./LCD.h: 88:     {;./LCD.h: 89:         lcd_dato(*dato);
  7555  0031FE  C003  FFF6         	movff	lcd_print@dato,tblptrl
  7556  003202  C004  FFF7         	movff	lcd_print@dato+1,tblptrh
  7557  003206  6AF8               	clrf	tblptru,c
  7558  003208  0E07               	movlw	(high __ramtop+-1)
  7559  00320A  64F7               	cpfsgt	tblptrh,c
  7560  00320C  D003               	bra	u4387
  7561  00320E  0008               	tblrd		*
  7562  003210  50F5               	movf	tablat,w,c
  7563  003212  D005               	bra	u4380
  7564  003214                     u4387:
  7565  003214  CFF6 FFE1          	movff	tblptrl,fsr1l
  7566  003218  CFF7 FFE2          	movff	tblptrh,fsr1h
  7567  00321C  50E7               	movf	indf1,w,c
  7568  00321E                     u4380:
  7569  00321E  EC76  F01A         	call	_lcd_dato
  7570  003222                     
  7571                           ;./LCD.h: 90:         dato++;
  7572  003222  4A03               	infsnz	lcd_print@dato^0,f,c
  7573  003224  2A04               	incf	(lcd_print@dato+1)^0,f,c
  7574  003226                     l3618:
  7575                           
  7576                           ;./LCD.h: 87:     while (*dato)
  7577  003226  C003  FFF6         	movff	lcd_print@dato,tblptrl
  7578  00322A  C004  FFF7         	movff	lcd_print@dato+1,tblptrh
  7579  00322E  6AF8               	clrf	tblptru,c
  7580  003230  0E07               	movlw	(high __ramtop+-1)
  7581  003232  64F7               	cpfsgt	tblptrh,c
  7582  003234  D003               	bra	u4397
  7583  003236  0008               	tblrd		*
  7584  003238  50F5               	movf	tablat,w,c
  7585  00323A  D005               	bra	u4390
  7586  00323C                     u4397:
  7587  00323C  CFF6 FFE1          	movff	tblptrl,fsr1l
  7588  003240  CFF7 FFE2          	movff	tblptrh,fsr1h
  7589  003244  50E7               	movf	indf1,w,c
  7590  003246                     u4390:
  7591  003246  0900               	iorlw	0
  7592  003248  A4D8               	btfss	status,2,c
  7593  00324A  EF29  F019         	goto	u4401
  7594  00324E  EF2B  F019         	goto	u4400
  7595  003252                     u4401:
  7596  003252  EFFF  F018         	goto	l3614
  7597  003256                     u4400:
  7598  003256  0012               	return		;funcret
  7599  003258                     __end_of_lcd_print:
  7600                           	callstack 0
  7601                           
  7602 ;; *************** function _lcd_dato *****************
  7603 ;; Defined at:
  7604 ;;		line 60 in file "./LCD.h"
  7605 ;; Parameters:    Size  Location     Type
  7606 ;;  dato            1    wreg     unsigned char 
  7607 ;; Auto vars:     Size  Location     Type
  7608 ;;  dato            1    1[COMRAM] unsigned char 
  7609 ;; Return value:  Size  Location     Type
  7610 ;;                  1    wreg      void 
  7611 ;; Registers used:
  7612 ;;		wreg, status,2, status,0, cstack
  7613 ;; Tracked objects:
  7614 ;;		On entry : 0/0
  7615 ;;		On exit  : 0/0
  7616 ;;		Unchanged: 0/0
  7617 ;; Data sizes:     COMRAM   BANK0   BANK1   BANK2   BANK3   BANK4   BANK5   BANK6   BANK7
  7618 ;;      Params:         0       0       0       0       0       0       0       0       0
  7619 ;;      Locals:         1       0       0       0       0       0       0       0       0
  7620 ;;      Temps:          1       0       0       0       0       0       0       0       0
  7621 ;;      Totals:         2       0       0       0       0       0       0       0       0
  7622 ;;Total ram usage:        2 bytes
  7623 ;; Hardware stack levels used:    1
  7624 ;; Hardware stack levels required when called:    1
  7625 ;; This function calls:
  7626 ;;		_lcd_time_control
  7627 ;; This function is called by:
  7628 ;;		_lcd_print
  7629 ;; This function uses a non-reentrant model
  7630 ;;
  7631                           
  7632                           	psect	text33
  7633  0034EC                     __ptext33:
  7634                           	callstack 0
  7635  0034EC                     _lcd_dato:
  7636                           	callstack 28
  7637                           
  7638                           ;incstack = 0
  7639                           ;lcd_dato@dato stored from wreg
  7640  0034EC  6E02               	movwf	lcd_dato@dato^0,c
  7641  0034EE                     
  7642                           ;./LCD.h: 61:     LATEbits.LATE0 = 1;
  7643  0034EE  808D               	bsf	141,0,c	;volatile
  7644  0034F0                     
  7645                           ;./LCD.h: 62:     LATC = dato & 0xF0;
  7646  0034F0  5002               	movf	lcd_dato@dato^0,w,c
  7647  0034F2  0BF0               	andlw	240
  7648  0034F4  6E8B               	movwf	139,c	;volatile
  7649  0034F6                     
  7650                           ;./LCD.h: 63:     lcd_time_control();
  7651  0034F6  EC9C  F01A         	call	_lcd_time_control	;wreg free
  7652  0034FA                     
  7653                           ;./LCD.h: 64:     LATC = ((dato & 0x0F) << 4);
  7654  0034FA  C002  F001         	movff	lcd_dato@dato,??_lcd_dato
  7655  0034FE  0E0F               	movlw	15
  7656  003500  1601               	andwf	??_lcd_dato^0,f,c
  7657  003502  3801               	swapf	??_lcd_dato^0,w,c
  7658  003504  0BF0               	andlw	240
  7659  003506  6E8B               	movwf	139,c	;volatile
  7660                           
  7661                           ;./LCD.h: 65:     lcd_time_control();
  7662  003508  EC9C  F01A         	call	_lcd_time_control	;wreg free
  7663  00350C                     
  7664                           ;./LCD.h: 66:     _delay((unsigned long)((50)*(4000000/4000000.0)));
  7665  00350C  0E10               	movlw	16
  7666  00350E                     u4577:
  7667  00350E  2EE8               	decfsz	wreg,f,c
  7668  003510  D7FE               	bra	u4577
  7669  003512  D000               	nop2	
  7670  003514  0012               	return		;funcret
  7671  003516                     __end_of_lcd_dato:
  7672                           	callstack 0
  7673                           
  7674 ;; *************** function _lcd_goto *****************
  7675 ;; Defined at:
  7676 ;;		line 96 in file "./LCD.h"
  7677 ;; Parameters:    Size  Location     Type
  7678 ;;  x               2    2[COMRAM] int 
  7679 ;;  y               2    4[COMRAM] int 
  7680 ;; Auto vars:     Size  Location     Type
  7681 ;;  posicion        1    8[COMRAM] unsigned char 
  7682 ;; Return value:  Size  Location     Type
  7683 ;;                  1    wreg      void 
  7684 ;; Registers used:
  7685 ;;		wreg, status,2, status,0, cstack
  7686 ;; Tracked objects:
  7687 ;;		On entry : 0/0
  7688 ;;		On exit  : 0/0
  7689 ;;		Unchanged: 0/0
  7690 ;; Data sizes:     COMRAM   BANK0   BANK1   BANK2   BANK3   BANK4   BANK5   BANK6   BANK7
  7691 ;;      Params:         4       0       0       0       0       0       0       0       0
  7692 ;;      Locals:         1       0       0       0       0       0       0       0       0
  7693 ;;      Temps:          2       0       0       0       0       0       0       0       0
  7694 ;;      Totals:         7       0       0       0       0       0       0       0       0
  7695 ;;Total ram usage:        7 bytes
  7696 ;; Hardware stack levels used:    1
  7697 ;; Hardware stack levels required when called:    2
  7698 ;; This function calls:
  7699 ;;		_lcd_control
  7700 ;; This function is called by:
  7701 ;;		_Ciclo_Util
  7702 ;;		_main
  7703 ;; This function uses a non-reentrant model
  7704 ;;
  7705                           
  7706                           	psect	text34
  7707  003306                     __ptext34:
  7708                           	callstack 0
  7709  003306                     _lcd_goto:
  7710                           	callstack 28
  7711  003306                     
  7712                           ;./LCD.h: 97:     char posicion;;./LCD.h: 98:     switch (y) {
  7713  003306  EF8F  F019         	goto	l3630
  7714  00330A                     l3622:
  7715  00330A  5003               	movf	lcd_goto@x^0,w,c
  7716  00330C  0F80               	addlw	128
  7717  00330E  6E09               	movwf	lcd_goto@posicion^0,c
  7718                           
  7719                           ;./LCD.h: 100:             break;
  7720  003310  EFA5  F019         	goto	l3632
  7721  003314                     l3624:
  7722  003314  5003               	movf	lcd_goto@x^0,w,c
  7723  003316  0FC0               	addlw	192
  7724  003318  6E09               	movwf	lcd_goto@posicion^0,c
  7725                           
  7726                           ;./LCD.h: 102:             break;
  7727  00331A  EFA5  F019         	goto	l3632
  7728  00331E                     l3630:
  7729  00331E  C005  F007         	movff	lcd_goto@y,??_lcd_goto
  7730  003322  C006  F008         	movff	lcd_goto@y+1,??_lcd_goto+1
  7731                           
  7732                           ; Switch on 2 bytes has been partitioned into a top level switch of size 1, and 1 sub-sw
      +                          itches
  7733                           ; Switch size 1, requested type "simple"
  7734                           ; Number of cases is 1, Range of values is 0 to 0
  7735                           ; switch strategies available:
  7736                           ; Name         Instructions Cycles
  7737                           ; simple_byte            4     3 (average)
  7738                           ;	Chosen strategy is simple_byte
  7739  003326  5008               	movf	(??_lcd_goto+1)^0,w,c
  7740  003328  0A00               	xorlw	0	; case 0
  7741  00332A  B4D8               	btfsc	status,2,c
  7742  00332C  EF9A  F019         	goto	l3814
  7743  003330  EF85  F019         	goto	l3622
  7744  003334                     l3814:
  7745                           
  7746                           ; Switch size 1, requested type "simple"
  7747                           ; Number of cases is 2, Range of values is 1 to 2
  7748                           ; switch strategies available:
  7749                           ; Name         Instructions Cycles
  7750                           ; simple_byte            7     4 (average)
  7751                           ;	Chosen strategy is simple_byte
  7752  003334  5007               	movf	??_lcd_goto^0,w,c
  7753  003336  0A01               	xorlw	1	; case 1
  7754  003338  B4D8               	btfsc	status,2,c
  7755  00333A  EF85  F019         	goto	l3622
  7756  00333E  0A03               	xorlw	3	; case 2
  7757  003340  B4D8               	btfsc	status,2,c
  7758  003342  EF8A  F019         	goto	l3624
  7759  003346  EF85  F019         	goto	l3622
  7760  00334A                     l3632:
  7761                           
  7762                           ;./LCD.h: 106:     lcd_control(posicion);
  7763  00334A  5009               	movf	lcd_goto@posicion^0,w,c
  7764  00334C  EC5E  F01A         	call	_lcd_control
  7765  003350  0012               	return		;funcret
  7766  003352                     __end_of_lcd_goto:
  7767                           	callstack 0
  7768                           
  7769 ;; *************** function _lcd_control *****************
  7770 ;; Defined at:
  7771 ;;		line 46 in file "./LCD.h"
  7772 ;; Parameters:    Size  Location     Type
  7773 ;;  dato            1    wreg     unsigned char 
  7774 ;; Auto vars:     Size  Location     Type
  7775 ;;  dato            1    1[COMRAM] unsigned char 
  7776 ;; Return value:  Size  Location     Type
  7777 ;;                  1    wreg      void 
  7778 ;; Registers used:
  7779 ;;		wreg, status,2, status,0, cstack
  7780 ;; Tracked objects:
  7781 ;;		On entry : 0/0
  7782 ;;		On exit  : 0/0
  7783 ;;		Unchanged: 0/0
  7784 ;; Data sizes:     COMRAM   BANK0   BANK1   BANK2   BANK3   BANK4   BANK5   BANK6   BANK7
  7785 ;;      Params:         0       0       0       0       0       0       0       0       0
  7786 ;;      Locals:         1       0       0       0       0       0       0       0       0
  7787 ;;      Temps:          1       0       0       0       0       0       0       0       0
  7788 ;;      Totals:         2       0       0       0       0       0       0       0       0
  7789 ;;Total ram usage:        2 bytes
  7790 ;; Hardware stack levels used:    1
  7791 ;; Hardware stack levels required when called:    1
  7792 ;; This function calls:
  7793 ;;		_lcd_time_control
  7794 ;; This function is called by:
  7795 ;;		_lcd_init
  7796 ;;		_lcd_clear_display
  7797 ;;		_lcd_cursor_home
  7798 ;;		_lcd_goto
  7799 ;; This function uses a non-reentrant model
  7800 ;;
  7801                           
  7802                           	psect	text35
  7803  0034BC                     __ptext35:
  7804                           	callstack 0
  7805  0034BC                     _lcd_control:
  7806                           	callstack 28
  7807                           
  7808                           ;incstack = 0
  7809                           ;lcd_control@dato stored from wreg
  7810  0034BC  6E02               	movwf	lcd_control@dato^0,c
  7811  0034BE                     
  7812                           ;./LCD.h: 47:     LATEbits.LATE0 = 0;
  7813  0034BE  908D               	bcf	141,0,c	;volatile
  7814  0034C0                     
  7815                           ;./LCD.h: 48:     LATC = dato & 0xF0;
  7816  0034C0  5002               	movf	lcd_control@dato^0,w,c
  7817  0034C2  0BF0               	andlw	240
  7818  0034C4  6E8B               	movwf	139,c	;volatile
  7819  0034C6                     
  7820                           ;./LCD.h: 49:     lcd_time_control();
  7821  0034C6  EC9C  F01A         	call	_lcd_time_control	;wreg free
  7822  0034CA                     
  7823                           ;./LCD.h: 50:     LATC = ((dato & 0x0F) << 4);
  7824  0034CA  C002  F001         	movff	lcd_control@dato,??_lcd_control
  7825  0034CE  0E0F               	movlw	15
  7826  0034D0  1601               	andwf	??_lcd_control^0,f,c
  7827  0034D2  3801               	swapf	??_lcd_control^0,w,c
  7828  0034D4  0BF0               	andlw	240
  7829  0034D6  6E8B               	movwf	139,c	;volatile
  7830                           
  7831                           ;./LCD.h: 51:     lcd_time_control();
  7832  0034D8  EC9C  F01A         	call	_lcd_time_control	;wreg free
  7833  0034DC                     
  7834                           ;./LCD.h: 52:     _delay((unsigned long)((2)*(4000000/4000.0)));
  7835  0034DC  0E03               	movlw	3
  7836  0034DE  6E01               	movwf	??_lcd_control^0,c
  7837  0034E0  0E98               	movlw	152
  7838  0034E2                     u4587:
  7839  0034E2  2EE8               	decfsz	wreg,f,c
  7840  0034E4  D7FE               	bra	u4587
  7841  0034E6  2E01               	decfsz	??_lcd_control^0,f,c
  7842  0034E8  D7FC               	bra	u4587
  7843  0034EA  0012               	return		;funcret
  7844  0034EC                     __end_of_lcd_control:
  7845                           	callstack 0
  7846                           
  7847 ;; *************** function _lcd_time_control *****************
  7848 ;; Defined at:
  7849 ;;		line 111 in file "./LCD.h"
  7850 ;; Parameters:    Size  Location     Type
  7851 ;;		None
  7852 ;; Auto vars:     Size  Location     Type
  7853 ;;		None
  7854 ;; Return value:  Size  Location     Type
  7855 ;;                  1    wreg      void 
  7856 ;; Registers used:
  7857 ;;		None
  7858 ;; Tracked objects:
  7859 ;;		On entry : 0/0
  7860 ;;		On exit  : 0/0
  7861 ;;		Unchanged: 0/0
  7862 ;; Data sizes:     COMRAM   BANK0   BANK1   BANK2   BANK3   BANK4   BANK5   BANK6   BANK7
  7863 ;;      Params:         0       0       0       0       0       0       0       0       0
  7864 ;;      Locals:         0       0       0       0       0       0       0       0       0
  7865 ;;      Temps:          0       0       0       0       0       0       0       0       0
  7866 ;;      Totals:         0       0       0       0       0       0       0       0       0
  7867 ;;Total ram usage:        0 bytes
  7868 ;; Hardware stack levels used:    1
  7869 ;; This function calls:
  7870 ;;		Nothing
  7871 ;; This function is called by:
  7872 ;;		_lcd_control
  7873 ;;		_lcd_dato
  7874 ;; This function uses a non-reentrant model
  7875 ;;
  7876                           
  7877                           	psect	text36
  7878  003538                     __ptext36:
  7879                           	callstack 0
  7880  003538                     _lcd_time_control:
  7881                           	callstack 28
  7882  003538                     
  7883                           ;./LCD.h: 112:     LATEbits.LATE1 = 1;
  7884  003538  828D               	bsf	141,1,c	;volatile
  7885                           
  7886                           ;./LCD.h: 113:     _delay((unsigned long)((5)*(4000000/4000000.0)));
  7887  00353A  D000               	nop2		;2 cycle nop
  7888  00353C  D000               	nop2		;2 cycle nop
  7889  00353E  F000               	nop	
  7890                           
  7891                           ;./LCD.h: 114:     LATEbits.LATE1 = 0;
  7892  003540  928D               	bcf	141,1,c	;volatile
  7893                           
  7894                           ;./LCD.h: 115:     _delay((unsigned long)((5)*(4000000/4000000.0)));
  7895  003542  D000               	nop2		;2 cycle nop
  7896  003544  D000               	nop2		;2 cycle nop
  7897  003546  F000               	nop	
  7898  003548  0012               	return		;funcret
  7899  00354A                     __end_of_lcd_time_control:
  7900                           	callstack 0
  7901                           
  7902 ;; *************** function ___xxtofl *****************
  7903 ;; Defined at:
  7904 ;;		line 10 in file "C:\Program Files\Microchip\xc8\v2.20\pic\sources\c99\common\xxtofl.c"
  7905 ;; Parameters:    Size  Location     Type
  7906 ;;  sign            1    wreg     unsigned char 
  7907 ;;  val             4    0[COMRAM] long 
  7908 ;; Auto vars:     Size  Location     Type
  7909 ;;  sign            1    8[COMRAM] unsigned char 
  7910 ;;  arg             4   10[COMRAM] unsigned long 
  7911 ;;  exp             1    9[COMRAM] unsigned char 
  7912 ;; Return value:  Size  Location     Type
  7913 ;;                  4    0[COMRAM] unsigned char 
  7914 ;; Registers used:
  7915 ;;		wreg, status,2, status,0
  7916 ;; Tracked objects:
  7917 ;;		On entry : 0/0
  7918 ;;		On exit  : 0/0
  7919 ;;		Unchanged: 0/0
  7920 ;; Data sizes:     COMRAM   BANK0   BANK1   BANK2   BANK3   BANK4   BANK5   BANK6   BANK7
  7921 ;;      Params:         4       0       0       0       0       0       0       0       0
  7922 ;;      Locals:         6       0       0       0       0       0       0       0       0
  7923 ;;      Temps:          4       0       0       0       0       0       0       0       0
  7924 ;;      Totals:        14       0       0       0       0       0       0       0       0
  7925 ;;Total ram usage:       14 bytes
  7926 ;; Hardware stack levels used:    1
  7927 ;; This function calls:
  7928 ;;		Nothing
  7929 ;; This function is called by:
  7930 ;;		_Ciclo_Util
  7931 ;; This function uses a non-reentrant model
  7932 ;;
  7933                           
  7934                           	psect	text37
  7935  0025C2                     __ptext37:
  7936                           	callstack 0
  7937  0025C2                     ___xxtofl:
  7938                           	callstack 29
  7939                           
  7940                           ;incstack = 0
  7941                           ;___xxtofl@sign stored from wreg
  7942  0025C2  6E09               	movwf	___xxtofl@sign^0,c
  7943  0025C4  5009               	movf	___xxtofl@sign^0,w,c
  7944  0025C6  B4D8               	btfsc	status,2,c
  7945  0025C8  EFE8  F012         	goto	u4411
  7946  0025CC  EFEA  F012         	goto	u4410
  7947  0025D0                     u4411:
  7948  0025D0  EF0C  F013         	goto	l770
  7949  0025D4                     u4410:
  7950  0025D4  BE04               	btfsc	(___xxtofl@val+3)^0,7,c
  7951  0025D6  EFF1  F012         	goto	u4420
  7952  0025DA  EFEF  F012         	goto	u4421
  7953  0025DE                     u4421:
  7954  0025DE  EF0C  F013         	goto	l770
  7955  0025E2                     u4420:
  7956  0025E2  C001  F005         	movff	___xxtofl@val,??___xxtofl
  7957  0025E6  C002  F006         	movff	___xxtofl@val+1,??___xxtofl+1
  7958  0025EA  C003  F007         	movff	___xxtofl@val+2,??___xxtofl+2
  7959  0025EE  C004  F008         	movff	___xxtofl@val+3,??___xxtofl+3
  7960  0025F2  1E05               	comf	??___xxtofl^0,f,c
  7961  0025F4  1E06               	comf	(??___xxtofl+1)^0,f,c
  7962  0025F6  1E07               	comf	(??___xxtofl+2)^0,f,c
  7963  0025F8  1E08               	comf	(??___xxtofl+3)^0,f,c
  7964  0025FA  2A05               	incf	??___xxtofl^0,f,c
  7965  0025FC  0E00               	movlw	0
  7966  0025FE  2206               	addwfc	(??___xxtofl+1)^0,f,c
  7967  002600  2207               	addwfc	(??___xxtofl+2)^0,f,c
  7968  002602  2208               	addwfc	(??___xxtofl+3)^0,f,c
  7969  002604  C005  F00B         	movff	??___xxtofl,___xxtofl@arg
  7970  002608  C006  F00C         	movff	??___xxtofl+1,___xxtofl@arg+1
  7971  00260C  C007  F00D         	movff	??___xxtofl+2,___xxtofl@arg+2
  7972  002610  C008  F00E         	movff	??___xxtofl+3,___xxtofl@arg+3
  7973  002614  EF14  F013         	goto	l3656
  7974  002618                     l770:
  7975  002618  C001  F00B         	movff	___xxtofl@val,___xxtofl@arg
  7976  00261C  C002  F00C         	movff	___xxtofl@val+1,___xxtofl@arg+1
  7977  002620  C003  F00D         	movff	___xxtofl@val+2,___xxtofl@arg+2
  7978  002624  C004  F00E         	movff	___xxtofl@val+3,___xxtofl@arg+3
  7979  002628                     l3656:
  7980  002628  5001               	movf	___xxtofl@val^0,w,c
  7981  00262A  1002               	iorwf	(___xxtofl@val+1)^0,w,c
  7982  00262C  1003               	iorwf	(___xxtofl@val+2)^0,w,c
  7983  00262E  1004               	iorwf	(___xxtofl@val+3)^0,w,c
  7984  002630  A4D8               	btfss	status,2,c
  7985  002632  EF1D  F013         	goto	u4431
  7986  002636  EF1F  F013         	goto	u4430
  7987  00263A                     u4431:
  7988  00263A  EF29  F013         	goto	l3662
  7989  00263E                     u4430:
  7990  00263E  0E00               	movlw	0
  7991  002640  6E01               	movwf	?___xxtofl^0,c
  7992  002642  0E00               	movlw	0
  7993  002644  6E02               	movwf	(?___xxtofl+1)^0,c
  7994  002646  0E00               	movlw	0
  7995  002648  6E03               	movwf	(?___xxtofl+2)^0,c
  7996  00264A  0E00               	movlw	0
  7997  00264C  6E04               	movwf	(?___xxtofl+3)^0,c
  7998  00264E  EFBA  F013         	goto	l773
  7999  002652                     l3662:
  8000  002652  0E96               	movlw	150
  8001  002654  6E0A               	movwf	___xxtofl@exp^0,c
  8002  002656  EF33  F013         	goto	l3666
  8003  00265A                     l3664:
  8004  00265A  2A0A               	incf	___xxtofl@exp^0,f,c
  8005  00265C  90D8               	bcf	status,0,c
  8006  00265E  320E               	rrcf	(___xxtofl@arg+3)^0,f,c
  8007  002660  320D               	rrcf	(___xxtofl@arg+2)^0,f,c
  8008  002662  320C               	rrcf	(___xxtofl@arg+1)^0,f,c
  8009  002664  320B               	rrcf	___xxtofl@arg^0,f,c
  8010  002666                     l3666:
  8011  002666  0E00               	movlw	0
  8012  002668  140B               	andwf	___xxtofl@arg^0,w,c
  8013  00266A  6E05               	movwf	??___xxtofl^0,c
  8014  00266C  0E00               	movlw	0
  8015  00266E  140C               	andwf	(___xxtofl@arg+1)^0,w,c
  8016  002670  6E06               	movwf	(??___xxtofl+1)^0,c
  8017  002672  0E00               	movlw	0
  8018  002674  140D               	andwf	(___xxtofl@arg+2)^0,w,c
  8019  002676  6E07               	movwf	(??___xxtofl+2)^0,c
  8020  002678  0EFE               	movlw	254
  8021  00267A  140E               	andwf	(___xxtofl@arg+3)^0,w,c
  8022  00267C  6E08               	movwf	(??___xxtofl+3)^0,c
  8023  00267E  5005               	movf	??___xxtofl^0,w,c
  8024  002680  1006               	iorwf	(??___xxtofl+1)^0,w,c
  8025  002682  1007               	iorwf	(??___xxtofl+2)^0,w,c
  8026  002684  1008               	iorwf	(??___xxtofl+3)^0,w,c
  8027  002686  A4D8               	btfss	status,2,c
  8028  002688  EF48  F013         	goto	u4441
  8029  00268C  EF4A  F013         	goto	u4440
  8030  002690                     u4441:
  8031  002690  EF2D  F013         	goto	l3664
  8032  002694                     u4440:
  8033  002694  EF58  F013         	goto	l777
  8034  002698                     l3668:
  8035  002698  2A0A               	incf	___xxtofl@exp^0,f,c
  8036  00269A  0E01               	movlw	1
  8037  00269C  260B               	addwf	___xxtofl@arg^0,f,c
  8038  00269E  0E00               	movlw	0
  8039  0026A0  220C               	addwfc	(___xxtofl@arg+1)^0,f,c
  8040  0026A2  220D               	addwfc	(___xxtofl@arg+2)^0,f,c
  8041  0026A4  220E               	addwfc	(___xxtofl@arg+3)^0,f,c
  8042  0026A6  90D8               	bcf	status,0,c
  8043  0026A8  320E               	rrcf	(___xxtofl@arg+3)^0,f,c
  8044  0026AA  320D               	rrcf	(___xxtofl@arg+2)^0,f,c
  8045  0026AC  320C               	rrcf	(___xxtofl@arg+1)^0,f,c
  8046  0026AE  320B               	rrcf	___xxtofl@arg^0,f,c
  8047  0026B0                     l777:
  8048  0026B0  0E00               	movlw	0
  8049  0026B2  140B               	andwf	___xxtofl@arg^0,w,c
  8050  0026B4  6E05               	movwf	??___xxtofl^0,c
  8051  0026B6  0E00               	movlw	0
  8052  0026B8  140C               	andwf	(___xxtofl@arg+1)^0,w,c
  8053  0026BA  6E06               	movwf	(??___xxtofl+1)^0,c
  8054  0026BC  0E00               	movlw	0
  8055  0026BE  140D               	andwf	(___xxtofl@arg+2)^0,w,c
  8056  0026C0  6E07               	movwf	(??___xxtofl+2)^0,c
  8057  0026C2  0EFF               	movlw	255
  8058  0026C4  140E               	andwf	(___xxtofl@arg+3)^0,w,c
  8059  0026C6  6E08               	movwf	(??___xxtofl+3)^0,c
  8060  0026C8  5005               	movf	??___xxtofl^0,w,c
  8061  0026CA  1006               	iorwf	(??___xxtofl+1)^0,w,c
  8062  0026CC  1007               	iorwf	(??___xxtofl+2)^0,w,c
  8063  0026CE  1008               	iorwf	(??___xxtofl+3)^0,w,c
  8064  0026D0  A4D8               	btfss	status,2,c
  8065  0026D2  EF6D  F013         	goto	u4451
  8066  0026D6  EF6F  F013         	goto	u4450
  8067  0026DA                     u4451:
  8068  0026DA  EF4C  F013         	goto	l3668
  8069  0026DE                     u4450:
  8070  0026DE  EF77  F013         	goto	l3676
  8071  0026E2                     l3674:
  8072  0026E2  060A               	decf	___xxtofl@exp^0,f,c
  8073  0026E4  90D8               	bcf	status,0,c
  8074  0026E6  360B               	rlcf	___xxtofl@arg^0,f,c
  8075  0026E8  360C               	rlcf	(___xxtofl@arg+1)^0,f,c
  8076  0026EA  360D               	rlcf	(___xxtofl@arg+2)^0,f,c
  8077  0026EC  360E               	rlcf	(___xxtofl@arg+3)^0,f,c
  8078  0026EE                     l3676:
  8079  0026EE  BE0D               	btfsc	(___xxtofl@arg+2)^0,7,c
  8080  0026F0  EF7C  F013         	goto	u4461
  8081  0026F4  EF7E  F013         	goto	u4460
  8082  0026F8                     u4461:
  8083  0026F8  EF86  F013         	goto	l784
  8084  0026FC                     u4460:
  8085  0026FC  0E02               	movlw	2
  8086  0026FE  600A               	cpfslt	___xxtofl@exp^0,c
  8087  002700  EF84  F013         	goto	u4471
  8088  002704  EF86  F013         	goto	u4470
  8089  002708                     u4471:
  8090  002708  EF71  F013         	goto	l3674
  8091  00270C                     u4470:
  8092  00270C                     l784:
  8093  00270C  B00A               	btfsc	___xxtofl@exp^0,0,c
  8094  00270E  EF8B  F013         	goto	u4481
  8095  002712  EF8D  F013         	goto	u4480
  8096  002716                     u4481:
  8097  002716  EF8E  F013         	goto	l3682
  8098  00271A                     u4480:
  8099  00271A  9E0D               	bcf	(___xxtofl@arg+2)^0,7,c
  8100  00271C                     l3682:
  8101  00271C  90D8               	bcf	status,0,c
  8102  00271E  320A               	rrcf	___xxtofl@exp^0,f,c
  8103  002720  C00A  F005         	movff	___xxtofl@exp,??___xxtofl
  8104  002724  6A06               	clrf	(??___xxtofl+1)^0,c
  8105  002726  6A07               	clrf	(??___xxtofl+2)^0,c
  8106  002728  6A08               	clrf	(??___xxtofl+3)^0,c
  8107  00272A  C005  F008         	movff	??___xxtofl,??___xxtofl+3
  8108  00272E  6A07               	clrf	(??___xxtofl+2)^0,c
  8109  002730  6A06               	clrf	(??___xxtofl+1)^0,c
  8110  002732  6A05               	clrf	??___xxtofl^0,c
  8111  002734  5005               	movf	??___xxtofl^0,w,c
  8112  002736  120B               	iorwf	___xxtofl@arg^0,f,c
  8113  002738  5006               	movf	(??___xxtofl+1)^0,w,c
  8114  00273A  120C               	iorwf	(___xxtofl@arg+1)^0,f,c
  8115  00273C  5007               	movf	(??___xxtofl+2)^0,w,c
  8116  00273E  120D               	iorwf	(___xxtofl@arg+2)^0,f,c
  8117  002740  5008               	movf	(??___xxtofl+3)^0,w,c
  8118  002742  120E               	iorwf	(___xxtofl@arg+3)^0,f,c
  8119  002744  5009               	movf	___xxtofl@sign^0,w,c
  8120  002746  B4D8               	btfsc	status,2,c
  8121  002748  EFA8  F013         	goto	u4491
  8122  00274C  EFAA  F013         	goto	u4490
  8123  002750                     u4491:
  8124  002750  EFB2  F013         	goto	l3692
  8125  002754                     u4490:
  8126  002754  BE04               	btfsc	(___xxtofl@val+3)^0,7,c
  8127  002756  EFB1  F013         	goto	u4500
  8128  00275A  EFAF  F013         	goto	u4501
  8129  00275E                     u4501:
  8130  00275E  EFB2  F013         	goto	l3692
  8131  002762                     u4500:
  8132  002762  8E0E               	bsf	(___xxtofl@arg+3)^0,7,c
  8133  002764                     l3692:
  8134  002764  C00B  F001         	movff	___xxtofl@arg,?___xxtofl
  8135  002768  C00C  F002         	movff	___xxtofl@arg+1,?___xxtofl+1
  8136  00276C  C00D  F003         	movff	___xxtofl@arg+2,?___xxtofl+2
  8137  002770  C00E  F004         	movff	___xxtofl@arg+3,?___xxtofl+3
  8138  002774                     l773:
  8139  002774  0012               	return		;funcret
  8140  002776                     __end_of___xxtofl:
  8141                           	callstack 0
  8142                           
  8143                           	psect	rparam
  8144  0000                     
  8145                           	psect	idloc
  8146                           
  8147                           ;Config register IDLOC0 @ 0x200000
  8148                           ;	unspecified, using default values
  8149  200000                     	org	2097152
  8150  200000  FF                 	db	255
  8151                           
  8152                           ;Config register IDLOC1 @ 0x200001
  8153                           ;	unspecified, using default values
  8154  200001                     	org	2097153
  8155  200001  FF                 	db	255
  8156                           
  8157                           ;Config register IDLOC2 @ 0x200002
  8158                           ;	unspecified, using default values
  8159  200002                     	org	2097154
  8160  200002  FF                 	db	255
  8161                           
  8162                           ;Config register IDLOC3 @ 0x200003
  8163                           ;	unspecified, using default values
  8164  200003                     	org	2097155
  8165  200003  FF                 	db	255
  8166                           
  8167                           ;Config register IDLOC4 @ 0x200004
  8168                           ;	unspecified, using default values
  8169  200004                     	org	2097156
  8170  200004  FF                 	db	255
  8171                           
  8172                           ;Config register IDLOC5 @ 0x200005
  8173                           ;	unspecified, using default values
  8174  200005                     	org	2097157
  8175  200005  FF                 	db	255
  8176                           
  8177                           ;Config register IDLOC6 @ 0x200006
  8178                           ;	unspecified, using default values
  8179  200006                     	org	2097158
  8180  200006  FF                 	db	255
  8181                           
  8182                           ;Config register IDLOC7 @ 0x200007
  8183                           ;	unspecified, using default values
  8184  200007                     	org	2097159
  8185  200007  FF                 	db	255
  8186                           
  8187                           	psect	config
  8188                           
  8189                           ;Config register CONFIG1L @ 0x300000
  8190                           ;	unspecified, using default values
  8191                           ;	PLL Prescaler Selection bits
  8192                           ;	PLLDIV = 0x0, unprogrammed default
  8193                           ;	System Clock Postscaler Selection bits
  8194                           ;	CPUDIV = 0x0, unprogrammed default
  8195                           ;	USB Clock Selection bit (used in Full-Speed USB mode only; UCFG:FSEN = 1)
  8196                           ;	USBDIV = 0x0, unprogrammed default
  8197  300000                     	org	3145728
  8198  300000  00                 	db	0
  8199                           
  8200                           ;Config register CONFIG1H @ 0x300001
  8201                           ;	unspecified, using default values
  8202                           ;	Oscillator Selection bits
  8203                           ;	FOSC = 0x5, unprogrammed default
  8204                           ;	Fail-Safe Clock Monitor Enable bit
  8205                           ;	FCMEN = 0x0, unprogrammed default
  8206                           ;	Internal/External Oscillator Switchover bit
  8207                           ;	IESO = 0x0, unprogrammed default
  8208  300001                     	org	3145729
  8209  300001  05                 	db	5
  8210                           
  8211                           ;Config register CONFIG2L @ 0x300002
  8212                           ;	unspecified, using default values
  8213                           ;	Power-up Timer Enable bit
  8214                           ;	PWRT = 0x1, unprogrammed default
  8215                           ;	Brown-out Reset Enable bits
  8216                           ;	BOR = 0x3, unprogrammed default
  8217                           ;	Brown-out Reset Voltage bits
  8218                           ;	BORV = 0x3, unprogrammed default
  8219                           ;	USB Voltage Regulator Enable bit
  8220                           ;	VREGEN = 0x0, unprogrammed default
  8221  300002                     	org	3145730
  8222  300002  1F                 	db	31
  8223                           
  8224                           ;Config register CONFIG2H @ 0x300003
  8225                           ;	unspecified, using default values
  8226                           ;	Watchdog Timer Enable bit
  8227                           ;	WDT = 0x1, unprogrammed default
  8228                           ;	Watchdog Timer Postscale Select bits
  8229                           ;	WDTPS = 0xF, unprogrammed default
  8230  300003                     	org	3145731
  8231  300003  1F                 	db	31
  8232                           
  8233                           ; Padding undefined space
  8234  300004                     	org	3145732
  8235  300004  FF                 	db	255
  8236                           
  8237                           ;Config register CONFIG3H @ 0x300005
  8238                           ;	unspecified, using default values
  8239                           ;	CCP2 MUX bit
  8240                           ;	CCP2MX = 0x1, unprogrammed default
  8241                           ;	PORTB A/D Enable bit
  8242                           ;	PBADEN = 0x1, unprogrammed default
  8243                           ;	Low-Power Timer 1 Oscillator Enable bit
  8244                           ;	LPT1OSC = 0x0, unprogrammed default
  8245                           ;	MCLR Pin Enable bit
  8246                           ;	MCLRE = 0x1, unprogrammed default
  8247  300005                     	org	3145733
  8248  300005  83                 	db	131
  8249                           
  8250                           ;Config register CONFIG4L @ 0x300006
  8251                           ;	unspecified, using default values
  8252                           ;	Stack Full/Underflow Reset Enable bit
  8253                           ;	STVREN = 0x1, unprogrammed default
  8254                           ;	Single-Supply ICSP Enable bit
  8255                           ;	LVP = 0x1, unprogrammed default
  8256                           ;	Dedicated In-Circuit Debug/Programming Port (ICPORT) Enable bit
  8257                           ;	ICPRT = 0x0, unprogrammed default
  8258                           ;	Extended Instruction Set Enable bit
  8259                           ;	XINST = 0x0, unprogrammed default
  8260                           ;	Background Debugger Enable bit
  8261                           ;	DEBUG = 0x1, unprogrammed default
  8262  300006                     	org	3145734
  8263  300006  85                 	db	133
  8264                           
  8265                           ; Padding undefined space
  8266  300007                     	org	3145735
  8267  300007  FF                 	db	255
  8268                           
  8269                           ;Config register CONFIG5L @ 0x300008
  8270                           ;	unspecified, using default values
  8271                           ;	Code Protection bit
  8272                           ;	CP0 = 0x1, unprogrammed default
  8273                           ;	Code Protection bit
  8274                           ;	CP1 = 0x1, unprogrammed default
  8275                           ;	Code Protection bit
  8276                           ;	CP2 = 0x1, unprogrammed default
  8277                           ;	Code Protection bit
  8278                           ;	CP3 = 0x1, unprogrammed default
  8279  300008                     	org	3145736
  8280  300008  0F                 	db	15
  8281                           
  8282                           ;Config register CONFIG5H @ 0x300009
  8283                           ;	unspecified, using default values
  8284                           ;	Boot Block Code Protection bit
  8285                           ;	CPB = 0x1, unprogrammed default
  8286                           ;	Data EEPROM Code Protection bit
  8287                           ;	CPD = 0x1, unprogrammed default
  8288  300009                     	org	3145737
  8289  300009  C0                 	db	192
  8290                           
  8291                           ;Config register CONFIG6L @ 0x30000A
  8292                           ;	unspecified, using default values
  8293                           ;	Write Protection bit
  8294                           ;	WRT0 = 0x1, unprogrammed default
  8295                           ;	Write Protection bit
  8296                           ;	WRT1 = 0x1, unprogrammed default
  8297                           ;	Write Protection bit
  8298                           ;	WRT2 = 0x1, unprogrammed default
  8299                           ;	Write Protection bit
  8300                           ;	WRT3 = 0x1, unprogrammed default
  8301  30000A                     	org	3145738
  8302  30000A  0F                 	db	15
  8303                           
  8304                           ;Config register CONFIG6H @ 0x30000B
  8305                           ;	unspecified, using default values
  8306                           ;	Configuration Register Write Protection bit
  8307                           ;	WRTC = 0x1, unprogrammed default
  8308                           ;	Boot Block Write Protection bit
  8309                           ;	WRTB = 0x1, unprogrammed default
  8310                           ;	Data EEPROM Write Protection bit
  8311                           ;	WRTD = 0x1, unprogrammed default
  8312  30000B                     	org	3145739
  8313  30000B  E0                 	db	224
  8314                           
  8315                           ;Config register CONFIG7L @ 0x30000C
  8316                           ;	unspecified, using default values
  8317                           ;	Table Read Protection bit
  8318                           ;	EBTR0 = 0x1, unprogrammed default
  8319                           ;	Table Read Protection bit
  8320                           ;	EBTR1 = 0x1, unprogrammed default
  8321                           ;	Table Read Protection bit
  8322                           ;	EBTR2 = 0x1, unprogrammed default
  8323                           ;	Table Read Protection bit
  8324                           ;	EBTR3 = 0x1, unprogrammed default
  8325  30000C                     	org	3145740
  8326  30000C  0F                 	db	15
  8327                           
  8328                           ;Config register CONFIG7H @ 0x30000D
  8329                           ;	unspecified, using default values
  8330                           ;	Boot Block Table Read Protection bit
  8331                           ;	EBTRB = 0x1, unprogrammed default
  8332  30000D                     	org	3145741
  8333  30000D  40                 	db	64
  8334                           tosu	equ	0xFFF
  8335                           tosh	equ	0xFFE
  8336                           tosl	equ	0xFFD
  8337                           stkptr	equ	0xFFC
  8338                           pclatu	equ	0xFFB
  8339                           pclath	equ	0xFFA
  8340                           pcl	equ	0xFF9
  8341                           tblptru	equ	0xFF8
  8342                           tblptrh	equ	0xFF7
  8343                           tblptrl	equ	0xFF6
  8344                           tablat	equ	0xFF5
  8345                           prodh	equ	0xFF4
  8346                           prodl	equ	0xFF3
  8347                           indf0	equ	0xFEF
  8348                           postinc0	equ	0xFEE
  8349                           postdec0	equ	0xFED
  8350                           preinc0	equ	0xFEC
  8351                           plusw0	equ	0xFEB
  8352                           fsr0h	equ	0xFEA
  8353                           fsr0l	equ	0xFE9
  8354                           wreg	equ	0xFE8
  8355                           indf1	equ	0xFE7
  8356                           postinc1	equ	0xFE6
  8357                           postdec1	equ	0xFE5
  8358                           preinc1	equ	0xFE4
  8359                           plusw1	equ	0xFE3
  8360                           fsr1h	equ	0xFE2
  8361                           fsr1l	equ	0xFE1
  8362                           bsr	equ	0xFE0
  8363                           indf2	equ	0xFDF
  8364                           postinc2	equ	0xFDE
  8365                           postdec2	equ	0xFDD
  8366                           preinc2	equ	0xFDC
  8367                           plusw2	equ	0xFDB
  8368                           fsr2h	equ	0xFDA
  8369                           fsr2l	equ	0xFD9
  8370                           status	equ	0xFD8

Data Sizes:
    Strings     47
    Constant    0
    Data        0
    BSS         112
    Persistent  0
    Stack       0

Auto Spaces:
    Space          Size  Autos    Used
    COMRAM           95     95      95
    BANK0           160    102     134
    BANK1           256      0      80
    BANK2           256      0       0
    BANK3           256      0       0
    BANK4           256      0       0
    BANK5           256      0       0
    BANK6           256      0       0
    BANK7           256      0       0

Pointer List with Targets:

    strncmp@_r	PTR const unsigned char  size(2) Largest target is 3
		 -> STR_16(CODE[3]), 

    strncmp@r	PTR const unsigned char  size(2) Largest target is 3
		 -> STR_16(CODE[3]), 

    strncmp@_l	PTR const unsigned char  size(2) Largest target is 3
		 -> vfpfcnvrt@ct(BANK0[3]), 

    strncmp@l	PTR const unsigned char  size(2) Largest target is 3
		 -> vfpfcnvrt@ct(BANK0[3]), 

    strlen@s	PTR const unsigned char  size(2) Largest target is 80
		 -> dbuf(BANK1[80]), 

    strlen@a	PTR const unsigned char  size(2) Largest target is 80
		 -> dbuf(BANK1[80]), 

    strcpy@dest	PTR unsigned char  size(2) Largest target is 80
		 -> dbuf(BANK1[80]), 

    strcpy@d	PTR unsigned char  size(2) Largest target is 80
		 -> dbuf(BANK1[80]), 

    strcpy@src	PTR const unsigned char  size(2) Largest target is 80
		 -> STR_11(CODE[4]), STR_10(CODE[4]), STR_7(CODE[4]), STR_6(CODE[4]), 
		 -> dbuf(BANK1[80]), 

    strcpy@s	PTR const unsigned char  size(2) Largest target is 80
		 -> STR_11(CODE[4]), STR_10(CODE[4]), STR_7(CODE[4]), STR_6(CODE[4]), 
		 -> dbuf(BANK1[80]), 

    fputs@s	PTR const unsigned char  size(2) Largest target is 80
		 -> dbuf(BANK1[80]), 

    fputs@fp	PTR struct _IO_FILE size(2) Largest target is 7
		 -> sprintf@f(BANK0[6]), 

    fputc@fp.buffer	PTR unsigned char  size(2) Largest target is 10
		 -> dc(BANK0[10]), 

    fputc@fp	PTR struct _IO_FILE size(2) Largest target is 7
		 -> sprintf@f(BANK0[6]), 

    vfprintf@ap	PTR PTR void  size(2) Largest target is 2
		 -> sprintf@ap(BANK0[2]), 

    vfprintf@fp	PTR struct _IO_FILE size(2) Largest target is 7
		 -> sprintf@f(BANK0[6]), 

    vfprintf@fmt	PTR const unsigned char  size(2) Largest target is 3
		 -> STR_1(CODE[3]), 

    vfprintf@cfmt	PTR unsigned char  size(2) Largest target is 3
		 -> STR_1(CODE[3]), 

    vfpfcnvrt@fp	PTR struct _IO_FILE size(2) Largest target is 7
		 -> sprintf@f(BANK0[6]), 

    vfpfcnvrt@ap	PTR PTR void  size(2) Largest target is 2
		 -> sprintf@ap(BANK0[2]), 

    vfpfcnvrt@fmt	PTR PTR unsigned char  size(2) Largest target is 2
		 -> vfprintf@cfmt(COMRAM[2]), 

    efgtoa@fp	PTR struct _IO_FILE size(2) Largest target is 7
		 -> sprintf@f(BANK0[6]), 

    sp__strcpy	PTR unsigned char  size(2) Largest target is 80
		 -> dbuf(BANK1[80]), 

    pad@fp	PTR struct _IO_FILE size(2) Largest target is 7
		 -> sprintf@f(BANK0[6]), 

    pad@buf	PTR unsigned char  size(2) Largest target is 80
		 -> dbuf(BANK1[80]), 

    sprintf@fmt	PTR const unsigned char  size(2) Largest target is 3
		 -> STR_1(CODE[3]), 

    sprintf@s	PTR unsigned char  size(2) Largest target is 10
		 -> dc(BANK0[10]), 

    sprintf@ap	PTR void [1] size(2) Largest target is 2
		 -> ?_sprintf(BANK0[2]), 

    S859_IO_FILE$buffer	PTR unsigned char  size(2) Largest target is 10
		 -> dc(BANK0[10]), 

    f.buffer	PTR unsigned char  size(2) Largest target is 10
		 -> dc(BANK0[10]), 

    lcd_print@dato	PTR unsigned char  size(2) Largest target is 12
		 -> STR_5(CODE[3]), STR_4(CODE[12]), STR_3(CODE[10]), STR_2(CODE[2]), 
		 -> dc(BANK0[10]), 


Critical Paths under _main in COMRAM

    _lcd_init->_lcd_control
    _lcd_cursor_home->_lcd_control
    _lcd_clear_display->_lcd_control
    _sprintf->_vfprintf
    _vfprintf->_vfpfcnvrt
    _vfpfcnvrt->_efgtoa
    _efgtoa->_floorf
    _tolower->_isupper
    _pad->_fputs
    _fputs->_fputc
    _floorf->___fldiv
    ___flsub->___flmul
    ___flge->___flmul
    ___fldiv->___flmul
    _lcd_print->_lcd_dato
    _lcd_goto->_lcd_control

Critical Paths under _main in BANK0

    _main->_Ciclo_Util
    _Ciclo_Util->_sprintf
    _sprintf->_vfprintf
    _vfprintf->_vfpfcnvrt
    _vfpfcnvrt->_efgtoa

Critical Paths under _main in BANK1

    None.

Critical Paths under _main in BANK2

    None.

Critical Paths under _main in BANK3

    None.

Critical Paths under _main in BANK4

    None.

Critical Paths under _main in BANK5

    None.

Critical Paths under _main in BANK6

    None.

Critical Paths under _main in BANK7

    None.

Call Graph Tables:

 ---------------------------------------------------------------------------------
 (Depth) Function   	        Calls       Base Space   Used Autos Params    Refs
 ---------------------------------------------------------------------------------
 (0) _main                                                 1     1      0   33905
                                             94 COMRAM     1     1      0
                         _Ciclo_Util
            _Configuracion_Registros
                                _PWM
                  _lcd_clear_display
                    _lcd_cursor_home
                           _lcd_goto
                           _lcd_init
                          _lcd_print
 ---------------------------------------------------------------------------------
 (1) _lcd_init                                             1     1      0      44
                                              2 COMRAM     1     1      0
                        _lcd_control
 ---------------------------------------------------------------------------------
 (1) _lcd_cursor_home                                      0     0      0      44
                        _lcd_control
 ---------------------------------------------------------------------------------
 (1) _lcd_clear_display                                    0     0      0      44
                        _lcd_control
 ---------------------------------------------------------------------------------
 (1) _PWM                                                  0     0      0       0
 ---------------------------------------------------------------------------------
 (1) _Configuracion_Registros                              0     0      0       0
 ---------------------------------------------------------------------------------
 (1) _Ciclo_Util                                          12    12      0   32843
                                             90 BANK0     12    12      0
                            ___fldiv
                            ___flmul
                            ___fltol
                           ___xxtofl
                           _lcd_goto
                          _lcd_print
                            _sprintf
 ---------------------------------------------------------------------------------
 (2) _sprintf                                             18    10      8   26325
                                             72 BANK0     18    10      8
                           _vfprintf
 ---------------------------------------------------------------------------------
 (3) _vfprintf                                             8     2      6   25970
                                             92 COMRAM     2     2      0
                                             66 BANK0      6     0      6
                          _vfpfcnvrt
 ---------------------------------------------------------------------------------
 (4) _vfpfcnvrt                                           46    40      6   25609
                                             82 COMRAM    10     4      6
                                             56 BANK0     10    10      0
                             _efgtoa
                              _fputc
                            _isupper
                            _strncmp
                            _tolower
 ---------------------------------------------------------------------------------
 (5) _strncmp                                             11     5      6     453
                                              0 COMRAM    11     5      6
 ---------------------------------------------------------------------------------
 (5) _efgtoa                                              68    61      7   21921
                                             70 COMRAM    12     5      7
                                              0 BANK0     56    56      0
                            ___awdiv
                            ___awmod
                            ___fladd
                            ___fldiv
                             ___fleq
                             ___flge
                            ___flmul
                            ___flneg
                            ___flsub
                            ___fltol
                      ___fpclassifyf
                             _floorf
                            _isupper
                                _pad
                             _strcpy
                            _tolower
 ---------------------------------------------------------------------------------
 (5) _tolower                                              8     6      2     944
                                              6 COMRAM     8     6      2
                            _isupper
 ---------------------------------------------------------------------------------
 (6) _isupper                                              6     4      2     465
                                              0 COMRAM     6     4      2
 ---------------------------------------------------------------------------------
 (6) _strcpy                                              10     6      4     856
                                              0 COMRAM    10     6      4
 ---------------------------------------------------------------------------------
 (6) _pad                                                 11     5      6    3165
                                             16 COMRAM    11     5      6
                              _fputc
                              _fputs
                             _strlen
 ---------------------------------------------------------------------------------
 (7) _strlen                                               4     2      2     166
                                              0 COMRAM     4     2      2
 ---------------------------------------------------------------------------------
 (7) _fputs                                                7     3      4    1235
                                              9 COMRAM     7     3      4
                              _fputc
 ---------------------------------------------------------------------------------
 (5) _fputc                                                9     5      4     834
                                              0 COMRAM     9     5      4
                              _putch
 ---------------------------------------------------------------------------------
 (6) _putch                                                1     1      0       0
 ---------------------------------------------------------------------------------
 (6) _floorf                                              20    16      4     490
                                             50 COMRAM    20    16      4
                            ___fldiv (ARG)
 ---------------------------------------------------------------------------------
 (6) ___fpclassifyf                                       14    10      4     287
                                              0 COMRAM    14    10      4
 ---------------------------------------------------------------------------------
 (6) ___fltol                                             10     6      4     457
                                              0 COMRAM    10     6      4
 ---------------------------------------------------------------------------------
 (6) ___flsub                                              8     0      8    2889
                                             25 COMRAM     8     0      8
                            ___fladd
                            ___flmul (ARG)
 ---------------------------------------------------------------------------------
 (7) ___fladd                                             16     8      8    2414
                                              0 COMRAM    16     8      8
 ---------------------------------------------------------------------------------
 (6) ___flneg                                              4     0      4     121
                                              0 COMRAM     4     0      4
 ---------------------------------------------------------------------------------
 (6) ___flmul                                             25    17      8    2504
                                              0 COMRAM    25    17      8
 ---------------------------------------------------------------------------------
 (6) ___flge                                              12     4      8     638
                                             25 COMRAM    12     4      8
                            ___flmul (ARG)
 ---------------------------------------------------------------------------------
 (6) ___fleq                                              12     4      8     646
                                              0 COMRAM    12     4      8
 ---------------------------------------------------------------------------------
 (6) ___fldiv                                             25    17      8    2159
                                             25 COMRAM    25    17      8
                            ___flmul (ARG)
 ---------------------------------------------------------------------------------
 (6) ___awmod                                              6     2      4     448
                                              0 COMRAM     6     2      4
 ---------------------------------------------------------------------------------
 (6) ___awdiv                                              8     4      4     452
                                              0 COMRAM     8     4      4
 ---------------------------------------------------------------------------------
 (1) _lcd_print                                            2     0      2     469
                                              2 COMRAM     2     0      2
                           _lcd_dato
 ---------------------------------------------------------------------------------
 (2) _lcd_dato                                             2     2      0      44
                                              0 COMRAM     2     2      0
                   _lcd_time_control
 ---------------------------------------------------------------------------------
 (1) _lcd_goto                                             7     3      4     461
                                              2 COMRAM     7     3      4
                        _lcd_control
 ---------------------------------------------------------------------------------
 (2) _lcd_control                                          2     2      0      44
                                              0 COMRAM     2     2      0
                   _lcd_time_control
 ---------------------------------------------------------------------------------
 (3) _lcd_time_control                                     0     0      0       0
 ---------------------------------------------------------------------------------
 (2) ___xxtofl                                            14    10      4     398
                                              0 COMRAM    14    10      4
 ---------------------------------------------------------------------------------
 Estimated maximum stack depth 7
 ---------------------------------------------------------------------------------

 Call Graph Graphs:

 _main (ROOT)
   _Ciclo_Util
     ___fldiv
       ___flmul (ARG)
     ___flmul
     ___fltol
     ___xxtofl
     _lcd_goto
       _lcd_control
         _lcd_time_control
     _lcd_print
       _lcd_dato
         _lcd_time_control
     _sprintf
       _vfprintf
         _vfpfcnvrt
           _efgtoa
             ___awdiv
             ___awmod
             ___fladd
             ___fldiv
               ___flmul (ARG)
             ___fleq
             ___flge
               ___flmul (ARG)
             ___flmul
             ___flneg
             ___flsub
               ___fladd
               ___flmul (ARG)
             ___fltol
             ___fpclassifyf
             _floorf
               ___fldiv (ARG)
                 ___flmul (ARG)
             _isupper
             _pad
               _fputc
                 _putch
               _fputs
                 _fputc
                   _putch
               _strlen
             _strcpy
             _tolower
               _isupper
           _fputc
             _putch
           _isupper
           _strncmp
           _tolower
             _isupper
   _Configuracion_Registros
   _PWM
   _lcd_clear_display
     _lcd_control
       _lcd_time_control
   _lcd_cursor_home
     _lcd_control
       _lcd_time_control
   _lcd_goto
     _lcd_control
       _lcd_time_control
   _lcd_init
     _lcd_control
       _lcd_time_control
   _lcd_print
     _lcd_dato
       _lcd_time_control

 Address spaces:
Name               Size   Autos  Total    Cost      Usage
BIGRAM             7FF      0       0      21        0.0%
EEDATA             100      0       0       0        0.0%
BITBANK7           100      0       0      18        0.0%
BANK7              100      0       0      19        0.0%
BITBANK6           100      0       0      16        0.0%
BANK6              100      0       0      17        0.0%
BITBANK5           100      0       0      14        0.0%
BANK5              100      0       0      15        0.0%
BITBANK4           100      0       0      12        0.0%
BANK4              100      0       0      13        0.0%
BITBANK3           100      0       0      10        0.0%
BANK3              100      0       0      11        0.0%
BITBANK2           100      0       0       8        0.0%
BANK2              100      0       0       9        0.0%
BITBANK1           100      0       0       6        0.0%
BANK1              100      0      50       7       31.2%
BITBANK0            A0      0       0       4        0.0%
BANK0               A0     66      86       5       83.8%
BITCOMRAM           5F      0       0       0        0.0%
COMRAM              5F     5F      5F       1      100.0%
BITSFR               0      0       0     200        0.0%
SFR                  0      0       0     200        0.0%
STACK                0      0       0       2        0.0%
NULL                 0      0       0       0        0.0%
ABS                  0      0     135      20        0.0%
DATA                 0      0     135       3        0.0%
CODE                 0      0       0       0        0.0%


Microchip Technology PIC18 Macro Assembler V2.20 build 20200408173844 
Symbol Table                                                                                   Wed Nov 04 21:21:20 2020

                    ___fldiv@aexp 0032                      ___fldiv@bexp 0031  
                    ___fldiv@sign 002A                                l52 34EA  
                              l61 355E                                l55 3514  
                              l49 3414                                l58 3566  
                              l75 3350                                l67 3256  
                              l78 3548                                l95 28AC  
                              l89 3556                                l99 30C4  
                    ___awdiv@sign 0006                                _dc 00DC  
                    lcd_dato@dato 0002                               l104 30D8  
                             l412 29B2                               l346 2EDE  
                             l380 2A70                               l710 1F82  
                             l702 1E88                               l374 3038  
                             l359 2F8E                               l711 1F70  
                             l385 2AB6                               l643 15D0  
                             l708 1F0A                               l660 16EA  
                             l652 18A0                               l644 15BE  
                             l733 1CCA                               l389 3484  
                             l645 1584                               l670 17A8  
                             l830 2D9C                               l736 1B5C  
                             l729 1966                               l833 2DDE  
                             l770 2618                               l746 1C8C  
                             l738 1BD4                               l739 1BC2  
                             l835 2E1A                               l940 22F8  
                             l773 2774                               l669 17BA  
                             l685 3396                               l853 13E0  
                             l933 23AE                               l871 0C1E  
                             l784 270C                               l777 26B0  
                             l697 2064                               l793 3304  
                             l946 3132                               l699 1EC4  
                             l947 313A                               l964 25C0  
                             l957 2BB4                               l974 344C  
                             l967 2504                               l897 0FB6  
                             l989 2D54                               l997 33DA  
                             _PR2 000FCB                               _PWM 303A  
                             _ccp 00D8                               _pad 2D56  
                    ___awmod@sign 0006                               wreg 000FE8  
                    ___flmul@aexp 0012                      ___flmul@bexp 0013  
                    ___flmul@sign 000D                      ___flmul@temp 0018  
                    ___flmul@prod 0014                              ?_PWM 0001  
                    ___fltol@exp1 000A                              l1000 3568  
                            l1012 34BA                              l1006 32B2  
                            l1031 319A                              l1016 2C8A  
                            l1026 3192                              l3000 2F36  
                            l3002 2F44                              l3010 2F6E  
                            l3012 2F7E                              l3004 2F5A  
                            l3020 2FBE                              l3100 2982  
                            l3014 2F86                              l3006 2F62  
                            l3030 3036                              l3022 2FCE  
                            l3102 2992                              l3110 2D66  
                            l3008 2F68                              l3024 2FFC  
                            l3040 2A20                              l3104 29A2  
                            l3120 2DBC                              l3112 2D7A  
                            l3200 085A                              l3026 300C  
                            l3018 2F90                              l3050 2AAE  
                            l3042 2A30                              l3034 29B4  
                            l3130 2AB8                              l3122 2DC0  
                            l3114 2D88                              l3210 08AA  
                            l3202 0862                              l3028 3030  
                            l3052 2AB4                              l3044 2A3E  
                            l3036 29E2                              l3060 3474  
                            l2500 14FE                              l3132 2AD8  
                            l3124 2DEE                              l3116 2D94  
                            l3108 2D56                              l3300 0C4E  
                            l3220 08E2                              l3212 08B8  
                            l3204 0886                              l3046 2A50  
                            l3038 29F2                              l2510 1512  
                            l2502 1502                              l3070 28D8  
                            l3134 2B16                              l3142 2B56  
                            l2430 2CB0                              l3126 2E02  
                            l3118 2DA8                              l3310 0CB4  
                            l3302 0C6A                              l3230 0948  
                            l3222 08E6                              l3214 08CA  
                            l3206 0890                              l3048 2A5E  
                            l3056 344E                              l2600 1778  
                            l2520 1526                              l2512 1516  
                            l2504 1506                              l2440 13E2  
                            l3080 2926                              l3072 2902  
                            l3064 28AE                              l3144 2B68  
                            l3136 2B3E                              l2432 2CBA  
                            l3152 3258                              l3160 3172  
                            l3400 10F8                              l3320 0CFC  
                            l3312 0CC6                              l3304 0CA0  
                            l3232 095A                              l3216 08D6  
                            l3224 08EC                              l3208 0898  
                            l2328 354A                              l3058 3464  
                            l2610 17CA                              l2602 177C  
                            l2530 159E                              l2522 1550  
                            l2514 151A                              l2506 150A  
                            l2450 141E                              l2442 13EE  
                            l3090 2952                              l3074 2904  
                            l3066 28C4                              l3138 2B4A  
                            l3170 2426                              l2434 2CD8  
                            l2426 2C8C                              l3154 3268  
                            l3162 3184                              l3410 11A0  
                            l3402 110A                              l3330 0D44  
                            l3322 0D0A                              l3314 0CD8  
                            l3306 0CA8                              l3250 0A2E  
                            l3234 0976                              l3226 0912  
                            l3242 09C0                              l3218 08DE  
                            l2700 1D88                              l2620 1830  
                            l2612 17D6                              l2604 178A  
                            l2540 15DE                              l2532 15A2  
                            l2524 156C                              l2516 151E  
                            l2508 150E                              l2460 144E  
                            l2452 142E                              l2444 13FC  
                            l3076 2914                              l3148 2BAC  
                            l3180 24F4                              l3172 243A  
                            l2436 2D0E                              l2428 2C9E  
                            l3156 313C                              l3420 11F8  
                            l3412 11A8                              l3404 110E  
                            l3340 0E58                              l3332 0D54  
                            l3324 0D22                              l3316 0CE6  
                            l3308 0CAC                              l3252 0A4A  
                            l3244 09E6                              l3260 0A66  
                            l3236 098E                              l3500 2BFA  
                            l2710 1DCA                              l2702 1D98  
                            l2630 1878                              l2622 1840  
                            l2614 17E4                              l2606 17A0  
                            l2550 1620                              l2542 15EE  
                            l2534 15B0                              l2526 157C  
                            l2518 1522                              l2470 1478  
                            l2462 1460                              l2454 1430  
                            l2446 13FE                              l3086 293E  
                            l3078 2918                              l3190 25B0  
                            l3174 2448                              l3182 2528  
                            l3166 23B0                              l3430 123C  
                            l3422 1206                              l3406 1114  
                            l3414 11AC                              l3350 0EF8  
                            l3334 0D68                              l3342 0E5E  
                            l3326 0D34                              l3318 0CEA  
                            l3270 0AF0                              l3262 0A80  
                            l3238 0998                              l3502 2C12  
                            l3512 3538                              l3600 34FA  
                            l2704 1DAE                              l2632 187A  
                            l2624 1860                              l2616 181E  
                            l2560 164E                              l2552 162E  
                            l2536 15B2                              l2528 1592  
                            l2472 1488                              l2480 14B2  
                            l2464 1462                              l2448 140E  
                            l2456 1438                              l3096 2966  
                            l3088 2948                              l3184 2564  
                            l3168 23D0                              l3440 1272  
                            l3432 1244                              l3424 1216  
                            l3416 11CA                              l3408 116C  
                            l3360 0F8E                              l3352 0F2A  
                            l3344 0E7C                              l3336 0DCC  
                            l3328 0D3C                              l3280 0BC8  
                            l3272 0B4A                              l3248 0A1C  
                            l3504 2C2E                              l3520 20AA  
                            l3602 350C                              l2730 1E4C  
                            l2722 1E02                              l2706 1DBE  
                            l2714 1DDE                              l2810 18CE  
                            l2802 18A2                              l2634 1880  
                            l2626 1864                              l2618 1820  
                            l2570 16BA                              l2562 1658  
                            l2554 163A                              l2546 1602  
                            l2538 15BC                              l2490 14EA  
                            l2482 14C2                              l2474 1498  
                            l2466 1468                              l2458 1448  
                            l3098 2972                              l3186 2578  
                            l3178 24B8                              l2642 3398  
                            l2650 3486                              l3450 12CE  
                            l3442 127A                              l3434 1254  
                            l3426 121A                              l3418 11E6  
                            l3370 1046                              l3362 0FA2  
                            l3354 0F3A                              l3346 0EB0  
                            l3338 0E24                              l3290 0C12  
                            l3282 0BCC                              l3274 0B7E  
                            l3266 0AB6                              l3194 0832  
                            l3506 2C40                              l3530 2122  
                            l3522 20AE                              l3514 2066  
                            l3610 3116                              l3620 3306  
                            l3612 31FA                              l2740 1E92  
                            l2732 1E54                              l2724 1E1C  
                            l2716 1DEE                              l2708 1DC6  
                            l2820 190A                              l2812 18DE  
                            l2804 18AE                              l2636 188E  
                            l2628 1872                              l2572 16CA  
                            l2556 163E                              l2548 1612  
                            l2564 165E                              l2492 14EE  
                            l2484 14D4                              l2476 14A8  
                            l2468 1476                              l3188 25A0  
                            l2644 33A4                              l2652 3492  
                            l2660 3416                              l3460 130E  
                            l3452 12D6                              l3444 1286  
                            l3436 125C                              l3428 122A  
                            l3380 1092                              l3372 1058  
                            l3364 0FAE                              l3356 0F4A  
                            l3348 0EE2                              l3284 0BDE  
                            l3292 0C2A                              l3276 0B86  
                            l3268 0AEA                              l3196 083C  
                            l3508 2C68                              l3540 21BA  
                            l3532 2154                              l3524 20D0  
                            l3516 208A                              l3604 30DA  
                            l3700 33E4                              l3622 330A  
                            l3630 331E                              l3614 31FE  
                            l2750 1EEA                              l2742 1EB0  
                            l2734 1E64                              l2726 1E2C  
                            l2718 1DEE                              l2670 1CE8  
                            l2902 1BE4                              l2910 1C2C  
                            l2830 1940                              l2822 1910  
                            l2814 18EE                              l2806 18BC  
                            l2638 1890                              l2590 174C  
                            l2582 1724                              l2566 1684  
                            l2574 16DA                              l2558 164C  
                            l2494 14F2                              l2486 14E2  
                            l2478 14AA                              l2646 33B6  
                            l2654 3496                              l3470 134A  
                            l3462 1320                              l3446 128C  
                            l3454 12DC                              l3438 126A  
                            l3390 10C6                              l3382 10A0  
                            l3374 106A                              l3366 0FD2  
                            l3358 0F7E                              l3286 0BF0  
                            l3278 0BB8                              l3198 084C  
                            l3550 2282                              l3534 2166  
                            l3526 20E0                              l3518 2098  
                            l3606 30E2                              l3710 3408  
                            l3702 33E6                              l3624 3314  
                            l3632 334A                              l3616 3222  
                            l2760 1F28                              l2752 1EF0  
                            l2744 1EB2                              l2736 1E78  
                            l2728 1E3C                              l2672 1CF8  
                            l2680 1D22                              l2664 1CCC  
                            l2920 1CA0                              l2912 1C46  
                            l2904 1BF0                              l2832 1950  
                            l2824 191E                              l2816 18F4  
                            l2808 18BE                              l2592 1754  
                            l2584 172E                              l2576 1700  
                            l2568 16B8                              l2496 14F6  
                            l2488 14E6                              l2648 33BA  
                            l2656 34AE                              l3480 13A2  
                            l3472 1350                              l3464 132C  
                            l3456 12EE                              l3448 12B2  
                            l3392 10D6                              l3384 10B0  
                            l3376 1078                              l3368 1036  
                            l3288 0BF8                              l3552 2294  
                            l3560 230C                              l3536 217C  
                            l3544 21E6                              l3528 2112  
                            l3608 30F0                              l3640 32C6  
                            l3720 277E                              l3712 340E  
                            l3704 33EC                              l3650 25C4  
                            l3618 3226                              l2770 1F92  
                            l2762 1F2C                              l2754 1EFA  
                            l2746 1EC2                              l2738 1E86  
                            l2690 1D4E                              l2682 1D32  
                            l2674 1D08                              l2666 1CD8  
                            l2922 1CAE                              l2914 1C5A  
                            l2906 1BFE                              l2850 19D2  
                            l2842 199A                              l2834 1956  
                            l2826 1920                              l2818 1904  
                            l2594 1758                              l2586 173C  
                            l2578 1710                              l2498 14FA  
                            l3482 13AA                              l3466 1334  
                            l3458 1308                              l3394 10DA  
                            l3386 10B4                              l3378 1080  
                            l3298 0C3C                              l3562 2330  
                            l3570 235E                              l3554 22C8  
                            l3546 2214                              l3538 218A  
                            l3642 32CE                              l3730 2866  
                            l3722 2790                              l3714 3560  
                            l3706 33FC                              l3652 25D4  
                            l2940 2E20                              l2780 1FF4  
                            l2772 1F9E                              l2764 1F3A  
                            l2756 1F08                              l2748 1ED4  
                            l2692 1D5E                              l2684 1D38  
                            l2676 1D18                              l2668 1CE6  
                            l2924 1CB0                              l2916 1C74  
                            l2908 1C28                              l2860 1A1C  
                            l2852 19EA                              l2844 19A6  
                            l2836 1976                              l2828 1930  
                            l2596 1768                              l2588 173E  
                            l2932 3352                              l3484 13BA  
                            l3476 1384                              l3468 1344  
                            l3396 10E0                              l3388 10BA  
                            l3492 2BB6                              l3572 236C  
                            l3564 233E                              l3644 32D6  
                            l3732 287A                              l3724 27CC  
                            l3740 303A                              l3716 3558  
                            l3708 3402                              l3670 269A  
                            l3662 2652                              l3654 25E2  
                            l3590 34CA                              l3814 3334  
                            l2950 2E50                              l2942 2E2E  
                            l2790 2052                              l2782 200A  
                            l2774 1FAC                              l2766 1F68  
                            l2758 1F1A                              l2694 1D6E  
                            l2686 1D3E                              l2678 1D1A  
                            l2918 1C90                              l2926 1CB6  
                            l2870 1A72                              l2862 1A2C  
                            l2854 19F6                              l2846 19B0  
                            l2838 1986                              l2598 176A  
                            l2934 3362                              l3486 13C0  
                            l3478 1396                              l3398 10E6  
                            l3494 2BE0                              l3566 2352  
                            l3646 32F2                              l3638 32B4  
                            l3734 2886                              l3726 2824  
                            l3718 2776                              l3750 304E  
                            l3742 303E                              ?_pad 0011  
                            l3680 271A                              l3672 26A6  
                            l3664 265A                              l3656 2628  
                            l3592 34DC                              l3584 34BE  
                            l2960 2E7E                              l2952 2E54  
                            l2944 2E36                              l2792 2058  
                            l2784 2024                              l2776 1FD6  
                            l2696 1D7E                              l2688 1D4C  
                            l2928 1CBA                              l2880 1B16  
                            l2872 1A8E                              l2864 1A38  
                            l2856 1A02                              l2848 19C6  
                            l3576 2378                              l3736 2892  
                            l3728 2840                              l3760 309A  
                            l3752 3050                              l3744 3046  
                            l3690 2762                              l3682 271C  
                            l3674 26E2                              l3666 2666  
                            l3658 263E                              l3586 34C0  
                            l3594 34EE                              l2970 2EB2  
                            l2962 2E8C                              l2954 2E5C  
                            l2946 2E3A                              l2938 2E1C  
                            l2794 205A                              l2786 2040  
                            l2778 1FDA                              l2698 1D80  
                            l2890 1B6C                              l2882 1B24  
                            l2874 1A9A                              l2866 1A48  
                            l2858 1A10                              l3498 2BEC  
                            l3578 239C                              l3738 289E  
                            l3770 30D6                              l3762 30B0  
                            l3754 306A                              l3746 304A  
                            l3692 2764                              l3684 2720  
                            l3676 26EE                              l3668 2698  
                            l3588 34C6                              l3596 34F0  
                            l2972 2EB8                              l2964 2E92  
                            l2956 2E6E                              l2948 2E48  
                            l2788 2044                              l2892 1B7A  
                            l2884 1B42                              l2876 1AB6  
                            l2868 1A62                              l3764 30BC  
                            l3756 3076                              l3748 304C  
                            l3780 31AC                              l3772 319C  
                            l3686 2744                              l3678 26FC  
                            l3598 34F6                              l2966 2EA8  
                            l2958 2E76                              l2974 2EBE  
                            l2990 2EFE                              l2982 2EE0  
                            l2894 1B7E                              l2886 1B4C  
                            l2878 1AE0                              l3766 30C8  
                            l3758 308E                              l3790 31E0  
                            l3782 31B0                              l3774 31A0  
                            l3688 2754                              l2976 2ECE  
                            l2968 2EB0                              l2992 2F0C  
                            l2984 2EE4                              l2896 1B8C  
                            l2888 1B5A                              l3768 30D2  
                            l3696 33DC                              l3792 31EE  
                            l3784 31BC                              l3776 31A4  
                            l2978 2ED6                              l2994 2F14  
                            l2986 2EF2                              l2898 1BBA  
                            l3698 33E0                              l3786 31D0  
                            l3778 31A8                              l2996 2F26  
                            l2988 2EFA                              l3788 31DC  
                            l2998 2F2E                              STR_1 082D  
                            STR_2 082B                              STR_3 080D  
                            STR_4 0801                              STR_5 082A  
                            STR_6 0817                              STR_7 081F  
                            u3000 18DE                              u3001 18DA  
                            u3010 191E                              u3011 191A  
                            u3100 1BBA                              u3020 1930  
                            u2300 2CD8                              u3101 1BB6  
                            u3021 192C                              u2301 2CD4  
                            u3110 1BD0                              u3030 1940  
                            u2310 2D0E                              u3111 1BCC  
                            u3031 193C                              u2311 2D0A  
                            _LATC 000F8B                              u3200 2E8C  
                            u3120 1BE4                              u3040 1976  
                            u2400 14E2                              u2320 13FC  
                            u4000 0EE2                              u3201 2E88  
                            u3121 1BE0                              u3041 1972  
                            u2401 14DE                              u2321 13F8  
                            u4001 0EDE                              u3210 2EA8  
                            u3130 1BFE                              u3050 1986  
                            u2410 1550                              u2330 140E  
                            u4010 0F2A                              u3211 2EA4  
                            u3131 1BFA                              u3051 1982  
                            u2411 154C                              u2331 140A  
                            u4011 0F26                              u3220 2ECE  
                            u3300 2FFC                              u3140 1C46  
                            u3060 1B00                              u2500 162E  
                            u2420 1568                              u2340 141E  
                            u4100 10F8                              u4020 0F3A  
                            u3221 2ECA                              u3301 2FF8  
                            u3141 1C42                              u2501 162A  
                            u2421 1562                              u2341 141A  
                            u4101 10F4                              u4021 0F36  
                            u3230 2EF2                              u3310 3030  
                            u3150 1C74                              u3070 1B5A  
                            u2510 164C                              u2430 156A  
                            u2350 1460                              u4110 11CA  
                            u4030 0FA2                              u3231 2EEE  
                            u3311 302C                              u3151 1C70  
                            u3071 1B56                              u2511 1648  
                            u2351 145C                              u4111 11C6  
                            u4031 0F9E                              u3240 2F0C  
                            u3320 29E2                              u3160 1CAE  
                            u3080 1B7A                              u2600 178A  
                            u2520 1684                              u2440 1592  
                            u2360 1476                              u3400 2926  
                            u2280 2C9E                              u4200 137E  
                            u4120 11E6                              u4040 1046  
                            u3241 2F08                              u3321 29DE  
                            u3161 1CAA                              u3081 1B76  
                            u3065 1AF6                              u2601 1786  
                            u2521 1680                              u2441 158E  
                            u2361 1472                              u3401 2922  
                            u2281 2C9A                              u4201 1378  
                            u4121 11E2                              u4041 1042  
                            u3170 2E2E                              u3250 2F26  
                            u3330 2A20                              u3090 1B8C  
                            u2610 17A0                              u2530 16CA  
                            u2450 15B0                              u2370 1488  
                            u3410 293A                              u2290 2CB0  
                            u4210 1380                              u4130 11F8  
                            u4050 1058                              u3171 2E2A  
                            u3251 2F22                              u3331 2A1C  
                            u3091 1B88                              u2611 179C  
                            u2531 16C6                              u2451 15AC  
                            u2371 1484                              u3411 2936  
                            u2291 2CAC                              u4131 11F4  
                            u4051 1054                              u3180 2E48  
                            u3260 2F44                              u3340 2A3E  
                            u2700 188E                              u2620 17B6  
                            u2540 1700                              u2460 15D0  
                            u2380 1498                              u3420 2962  
                            u3500 2B16                              u4220 1396  
                            u4140 1206                              u4060 106A  
                            u4300 2122                              u3181 2E44  
                            u3261 2F40                              u3341 2A3A  
                            u2701 188A                              u2621 17B2  
                            u2541 16FC                              u2461 15CC  
                            u2381 1494                              u3421 295E  
                            u3501 2B12                              u4221 1392  
                            u4141 1202                              u4061 1066  
                            u4301 211E                              u3190 2E6E  
                            u3270 2F5A                              u3350 2A5E  
                            u2630 17CA                              u2550 1710  
                            u2470 15DE                              u2390 14D4  
                            u3430 2982                              u3510 2B3E  
                            u2710 33DA                              u4150 123C  
                            u4070 1078                              u4230 2BE0  
                            u4310 2166                              u3191 2E6A  
                            u3271 2F56                              u3351 2A5A  
                            u2631 17C6                              u2551 170C  
                            u2471 15DA                              u2391 14D0  
                            u3431 297E                              u3511 2B3A  
                            u2711 33D6                              u4151 1238  
                            u4071 1074                              u4231 2BDC  
                            u4311 2162                              u4400 3256  
                            u3280 2F7E                              u2800 1D6E  
                            u3360 2AAE                              u2640 17E4  
                            u2560 173C                              u2480 15EE  
                            u3440 2992                              u3520 2B68  
                            u2720 34AE                              u3600 3184  
                            u4160 126A                              u4080 1092  
                            u4240 2C12                              u4320 2214  
                            u4401 3252                              u3281 2F7A  
                            u2801 1D6A                              u3361 2AAA  
                            u2641 17E0                              u2561 1738  
                            u2481 15EA                              u3441 298E  
                            u3521 2B64                              u2721 34AA  
                            u3601 3180                              u4161 1266  
                            u4081 108E                              u4241 2C0E  
                            u4321 2210                              u4410 25D4  
                            u2810 1DAE                              u3290 2FBE  
                            u3370 3464                              u2650 181E  
                            u2570 174C                              u2490 1620  
                            u3610 23F8                              u3450 2D66  
                            u2730 3446                              u4170 12EE  
                            u4090 10A0                              u4250 2C2E  
                            u4330 227A                              u4411 25D0  
                            u2811 1DAA                              u3291 2FBA  
                            u3371 3460                              u2651 181A  
                            u2571 1748                              u2491 161C  
                            u3451 2D62                              u2731 3440  
                            u4171 12EA                              u4091 109C  
                            u4251 2C2A                              u4331 2274  
                            u4500 2762                              u4420 25E2  
                            u2900 1F3A                              u2820 1DEE  
                            u2660 1830                              u2580 1768  
                            u3380 28C4                              u3540 2BA2  
                            u3700 25A0                              u3620 2426  
                            u3460 2D88                              u2740 3448  
                            u4180 1308                              u4260 2C40  
                            u4340 227C                              u4501 275E  
                            u4421 25DE                              u2901 1F36  
                            u2821 1DEA                              u2661 182C  
                            u2581 1764                              u3381 28C0  
                            u3541 2B9C                              u3701 259C  
                            u3621 2422                              u3461 2D84  
                            u4181 1304                              u4261 2C3C  
                            u4430 263E                              u2910 1F68  
                            u2830 1E64                              u2750 1CE6  
                            u2670 1840                              u2590 1778  
                            u3390 28F8                              u3550 2BA4  
                            u3630 2448                              u3470 2DDE  
                            u4190 1320                              u3710 085A  
                            u4270 2C68                              u4350 2294  
                            u4510 28AC                              u4431 263A  
                            u2911 1F64                              u2831 1E60  
                            u2751 1CE2                              u2671 183C  
                            u2591 1774                              u3535 2B7A  
                            u3631 2444                              u3615 23EE  
                            u3471 2DDA                              u4191 131C  
                            u3711 0856                              u4271 2C64  
                            u4351 2290                              u4511 28A8  
                            u4440 2694                              u2920 1F7E  
                            u2840 1E86                              u2760 1CF8  
                            u2680 1860                              u3480 2DEE  
                            u3560 32A0                              u3800 0A14  
                            u3720 08AA                              u4360 2330  
                            u4280 208A                              u4520 306A  
                            u4441 2690                              u2921 1F7A  
                            u2841 1E82                              u2761 1CF4  
                            u2681 185C                              u3481 2DEA  
                            u3801 0A0E                              u3721 08A6  
                            u4361 232C                              u4281 2086  
                            u4521 3066                              u4450 26DE  
                            u2930 1F92                              u2850 1EB0  
                            u2770 1D08                              u2690 1872  
                            u3490 2AF8                              u3650 24B4  
                            u3570 32B2                              u3810 0A16  
                            u3730 08B8                              u4290 20E0  
                            u4370 3132                              u4530 308E  
                            u4451 26DA                              u2931 1F8E  
                            u2851 1EAC                              u2771 1D04  
                            u2691 186E                              u3395 28EE  
                            u3651 24B0                              u3571 32AE  
                            u3731 08B4                              u4291 20DC  
                            u4371 312E                              u4531 308A  
                            u4460 26FC                              u4380 321E  
                            u2940 1FAC                              u2860 1ED4  
                            u2780 1D4C                              u3660 24D8  
                            u3580 316C                              u3900 0C4E  
                            u3820 0A2E                              u3740 08CA  
                            u4540 30B0                              u4461 26F8  
                            u2941 1FA8                              u2861 1ED0  
                            u2781 1D48                              u3645 245C  
                            u3581 3166                              u3901 0C4A  
                            u3821 0A2A                              u3741 08C6  
                            u4541 30AC                              u4470 270C  
                            u4390 3246                              u2950 1FF4  
                            u2870 1EEA                              u2790 1D5E  
                            u3670 24F4                              u3646 2466  
                            u3590 316E                              u3910 0C6A  
                            u3830 0AB2                              u3750 0912  
                            u4471 2708                              u2951 1FF0  
                            u2871 1EE6                              u2791 1D5A  
                            u3495 2AEE                              u3671 24F0  
                            u3647 2476                              u3567 3296  
                            u3911 0C66                              u3831 0AAE  
                            u3751 090E                              u4480 271A  
                            u2960 2024                              u2880 1F08  
                            u3680 2548                              u3920 0CA0  
                            u3840 0B46                              u3760 0940  
                            u4481 2716                              u2961 2020  
                            u2881 1F04                              u3665 24CE  
                            u3921 0C9C                              u3841 0B42  
                            u3761 093A                              u4490 2754  
                            u2970 2052                              u2890 1F28  
                            u3690 2564                              u3930 0CC6  
                            u3850 0BB8                              u3770 0942  
                            u4491 2750                              u4387 3214  
                            u2971 204E                              u2891 1F24  
                            u3691 2560                              u3931 0CC2  
                            u3851 0BB4                              u2980 18BC  
                            u3940 0CD8                              u3860 0BDE  
                            u3780 095A                              u4397 323C  
                            u2981 18B8                              u3685 253E  
                            u3941 0CD4                              u3861 0BDA  
                            u3781 0956                              u4557 31E6  
                            u2990 18CE                              u3950 0CE6  
                            u3870 0BF0                              u3790 09E6  
                            u2991 18CA                              u3951 0CE2  
                            u3871 0BEC                              u3791 09E2  
                            u4567 33F2                              u3960 0CFC  
                            u3880 0C12                              u4577 350E  
                            u3961 0CF8                              u3881 0C0E  
                            u3970 0D0A                              u3890 0C38  
                            u4587 34E2                              u3971 0D06  
                            u3891 0C34                              u3980 0D34  
                            u3981 0D30                              u3990 0E7C  
                            u3991 0E78                              _TMR2 000FCC  
                            _ccp1 00D6                              _dbuf 0100  
                            _main 319C                        _Ciclo_Util 2776  
                            _prec 00D2                              _nout 00CE  
                            pad@i 0018                              pad@p 0015  
                            fsr1h 000FE2                              fsr2h 000FDA  
                            indf1 000FE7                              indf2 000FDF  
                            fsr1l 000FE1                              pad@w 001A  
                            fsr2l 000FD9                     ___fpclassifyf 2AB8  
                            prodh 000FF4                              prodl 000FF3  
                            start 0000                   ___fldiv@new_exp 002B  
                    _tolower$1100 000D                      ___param_bank 000000  
                           ??_PWM 0001                             ??_pad 0017  
                   ___fltol@sign1 0009                   __end_of___fladd 18A2  
                           ?_main 0001                   __end_of___fldiv 2066  
                 __end_of___awdiv 2EE0                   __end_of___flneg 3486  
                           STR_10 081B                             STR_11 0823  
                           STR_14 0827                             STR_16 0827  
                 __end_of___awmod 2F90                   __end_of___flmul 1CCC  
                 __end_of___flsub 3398                   __end_of___fltol 29B4  
                 ___awdiv@divisor 0003                             _T2CON 000FCA  
                 ___awdiv@counter 0005                      vfpfcnvrt@fmt 0055  
                           _TRISC 000F94                             _flags 00D4  
                           _fputc 2C8C                             _fputs 3398  
                           pad@fp 0011                             _width 00D0  
                           _putch 3568                   __end_of_isupper 344E  
                           tablat 000FF5                             status 000FD8  
                 __end_of_sprintf 3306                    ?___fpclassifyf 0001  
                 __end_of_tolower 319C                   __end_of_strncmp 2C8C  
                 __initialization 3516                      __end_of_main 31FA  
                          ??_main 005F                     __activetblptr 000002  
                          _ADCON0 000FC2                            _ADCON1 000FC1  
                          _ADCON2 000FC0                            ?_fputc 0001  
                          ?_fputs 000A                            _ADRESH 000FC4  
                          _ADRESL 000FC3                            _CCPR1L 000FBE  
                ___awdiv@dividend 0001                            ?_putch 0001  
                     ?_Ciclo_Util 0001                  __end_of___xxtofl 2776  
               ?_lcd_time_control 0001                     lcd_print@dato 0003  
              ??_lcd_time_control 0001                  __end_of_lcd_dato 3516  
                    vfprintf@cfmt 005D                  __end_of_lcd_init 3416  
                __end_of_lcd_goto 3352                            ___flge 29B4  
                          ___fleq 2F90              __size_of_lcd_control 0030  
                       ??___fladd 0009                         ??___fldiv 0022  
                       ??___awdiv 0005                         ??___flneg 0005  
                       ??___awmod 0005                         ??___flmul 0009  
                       ??___flsub 0022                         ??___fltol 0005  
                          _efgtoa 0832                            _floorf 23B0  
               _lcd_clear_display 3560                            clear_0 351C  
                          clear_1 3528                  ___awdiv@quotient 0007  
                 ___awmod@divisor 0003                   ___awmod@counter 0005  
                          pad@buf 0013                ?_lcd_clear_display 0001  
                          _strcpy 3258                            _strlen 3486  
                          fputc@c 0001                            fputs@c 000E  
                          fputs@i 000F                            fputs@s 000A  
                 ___fpclassifyf@e 0009                   ___fpclassifyf@u 000B  
                 ___fpclassifyf@x 0001                      __mediumconst 0000  
                          tblptrh 000FF7                         ??_isupper 0003  
                          tblptrl 000FF6                            tblptru 000FF8  
                          putch@c 0001               ??_lcd_clear_display 0003  
                __end_of_vfprintf 313C                         ??_sprintf 005F  
                       ??_tolower 0009                         ??_strncmp 0007  
                      ___flge@ff1 001A                        ___flge@ff2 001E  
                 ??___fpclassifyf 0005                      ___xxtofl@arg 000B  
                    ___xxtofl@exp 000A                      ___xxtofl@val 0001  
                      ___fleq@ff1 0001                        ___fleq@ff2 0005  
        ?_Configuracion_Registros 0001                        __accesstop 0060  
         __end_of__initialization 352E                        ___flneg@f1 0001  
                   ___rparam_used 000001                        ___fltol@f1 0001  
             Ciclo_Util@dutycycle 00C2                    __pcstackCOMRAM 0001  
       __end_of_lcd_clear_display 3568                     __end_of_fputc 2D56  
                   __end_of_fputs 33DC                     __end_of_putch 356A  
             __size_of_Ciclo_Util 0138                __size_of_lcd_print 005E  
                         ??_fputc 0005                           ??_fputs 000E  
                         ??_putch 0001                        __pbssBANK0 00C6  
                      __pbssBANK1 0100                        _efgtoa$980 0068  
                      _efgtoa$974 0064                        _efgtoa$975 0066  
                      _efgtoa$984 006A                        _efgtoa$985 006C  
                      _efgtoa$986 006E          __size_of_lcd_cursor_home 0008  
                         ?___flge 001A                           ?___fleq 0001  
                         ?_efgtoa 0047                           _CCP1CON 000FBD  
                         ?_floorf 0033                           ?_strcpy 0001  
                         ?_strlen 0001                         ?___xxtofl 0001  
              __size_of_vfpfcnvrt 034A   __end_of_Configuracion_Registros 3558  
                       ?_lcd_dato 0001                         ?_lcd_init 0001  
                       ?_lcd_goto 0003                           __Hparam 0000  
                         __Lparam 0000                   lcd_control@dato 0002  
      __size_of_lcd_clear_display 0008                   __size_of___flge 0104  
                 __size_of___fleq 00AA                 __end_of_lcd_print 3258  
                         ___fladd 13E2                           ___fldiv 1CCC  
                         ___awdiv 2E1C                           ___flneg 344E  
                         ___awmod 2EE0                           ___flmul 18A2  
                         ___flsub 3352                           ___fltol 28AE  
                       ?_vfprintf 00A2                      __psmallconst 0800  
                 __size_of_efgtoa 0BB0                           _cicloU1 00DA  
                 __size_of_floorf 0212                           __pcinit 3516  
                         __ramtop 0800                           __ptext0 319C  
                         __ptext1 33DC                           __ptext2 3558  
                         __ptext3 3560                           __ptext4 303A  
                         __ptext5 354A                           __ptext6 2776  
                         __ptext7 32B4                           __ptext8 30DA  
                         __ptext9 2066                   __size_of_strcpy 005C  
                 __size_of_strlen 0036                      __size_of_PWM 00A0  
                       _T2CONbits 000FCA                      __size_of_pad 00C6  
                      ??___xxtofl 0005                  ___awmod@dividend 0001  
                         _isupper 3416                           efgtoa@c 004D  
                         efgtoa@d 0078                           efgtoa@e 0090  
                         efgtoa@f 0049                           efgtoa@g 008C  
                         efgtoa@h 0082                           efgtoa@i 008A  
                         efgtoa@l 0086                           efgtoa@m 0074  
                         efgtoa@n 0092                           efgtoa@p 007C  
                         efgtoa@t 0070                           efgtoa@u 0094  
                         efgtoa@w 007F                        ??_lcd_dato 0001  
                         _sprintf 32B4                           _tolower 313C  
                      ??_lcd_init 0003                        ??_lcd_goto 0007  
                         _strncmp 2BB6              end_of_initialization 352E  
                         floorf@e 0041                           floorf@m 003D  
                         floorf@u 0043                           floorf@x 0033  
                         fputc@fp 0003                      ??_Ciclo_Util 00BA  
                   __Lmediumconst 0000                           fputs@fp 000C  
               __end_of_vfpfcnvrt 23B0                        efgtoa@mode 0081  
                      efgtoa@sign 007A                           postdec2 000FDD  
                         postinc0 000FEE                           postinc1 000FE6  
                         postinc2 000FDE                        ??_vfprintf 005D  
                         strcpy@d 0009                           strlen@a 0003  
                         strcpy@s 0007                           strlen@s 0001  
               ??_lcd_cursor_home 0003                         _PORTCbits 000F82  
       __size_of_lcd_time_control 0012                       ___fladd@grs 0010  
              __end_of_Ciclo_Util 28AE                     ___xxtofl@sign 0009  
                       _TRISAbits 000F92                         _TRISCbits 000F94  
                       _TRISEbits 000F96                       ___fldiv@grs 002D  
                     ___fldiv@rem 0026                       ___flmul@grs 000E  
                   ??_lcd_control 0001              Ciclo_Util@dutycyclet 00BE  
                  __end_of___flge 2AB8                    __end_of___fleq 303A  
__size_of_Configuracion_Registros 000E                       vfpfcnvrt@ap 0057  
                     vfpfcnvrt@ct 009E                       vfpfcnvrt@fp 0053  
                  __end_of_efgtoa 13E2                    __end_of_floorf 25C2  
                      floorf@F524 00C6                    __end_of_strcpy 32B4  
                  __end_of_strlen 34BC               start_initialization 3516  
                     __end_of_PWM 30DA                       __end_of_pad 2E1C  
           __end_of___fpclassifyf 2BB6                       vfprintf@fmt 00A4  
                        ??___flge 0022                          ??___fleq 0009  
                        ??_efgtoa 004E               __end_of_lcd_control 34EC  
                        ??_floorf 0037                          ??_strcpy 0005  
                        ??_strlen 0003                         ___fladd@a 0005  
                       ___fladd@b 0001                         ___fldiv@a 001E  
                       ___fldiv@b 001A                         ___flmul@a 0005  
                       ___flmul@b 0001                         ___flsub@a 001E  
                       ___flsub@b 001A                     __pcstackBANK0 0060  
               __size_of___xxtofl 01B4                 __size_of_lcd_dato 002A  
               __size_of_lcd_init 003A                 __size_of_lcd_goto 004C  
                        ?___fladd 0001                          ?___fldiv 001A  
                        ?___awdiv 0001                          ?___flneg 0001  
                        ?___awmod 0001                          ?___flmul 0001  
                        ?___flsub 001A                          ?___fltol 0001  
                       _lcd_print 31FA                 __size_of_vfprintf 0062  
                _lcd_time_control 3538                       __smallconst 0800  
                        ?_isupper 0001                          ?_sprintf 00A8  
                        ?_tolower 0007                    __size_of_fputc 00CA  
                  __size_of_fputs 0044                          ?_strncmp 0001  
                  __size_of_putch 0002                          _LATEbits 000F8D  
                 _lcd_cursor_home 3558                       _lcd_control 34BC  
         _Configuracion_Registros 354A                         _vfpfcnvrt 2066  
                      ?_lcd_print 0003                        _ADCON0bits 000FC2  
                       lcd_goto@x 0003                         lcd_goto@y 0005  
                      vfpfcnvrt@c 00A1                        vfpfcnvrt@f 009A  
                        __Hrparam 0000                        vfprintf@ap 00A6  
                        __Lrparam 0000                        vfprintf@fp 00A2  
                __size_of___fladd 04C0                  __size_of___fldiv 039A  
                __size_of___awdiv 00C4                  __size_of___flneg 0038  
                __size_of___awmod 00B0                  __size_of___flmul 042A  
                __size_of___flsub 0046                  __size_of___fltol 0106  
                      ?_vfpfcnvrt 0053                ___fpclassifyf@F463 00CA  
                      sprintf@fmt 00AA                          ___xxtofl 25C2  
                        __ptext10 2BB6                          __ptext11 0832  
                        __ptext20 23B0                          __ptext12 313C  
                        __ptext21 2AB8                          __ptext13 3416  
                        __ptext30 2EE0                          __ptext22 28AE  
                        __ptext14 3258                          __ptext31 2E1C  
                        __ptext23 3352                          __ptext15 2D56  
                        __ptext32 31FA                          __ptext24 13E2  
                        __ptext16 3486                          __ptext33 34EC  
                        __ptext25 344E                          __ptext17 3398  
                        __ptext34 3306                          __ptext26 18A2  
                        __ptext18 2C8C                          __ptext35 34BC  
                        __ptext27 29B4                          __ptext19 3568  
                        __ptext36 3538                          __ptext28 2F90  
                        __ptext37 25C2                          __ptext29 1CCC  
                __size_of_isupper 0038                          _lcd_dato 34EC  
                        _lcd_init 33DC                          _lcd_goto 3306  
         __end_of_lcd_cursor_home 3560                  __size_of_sprintf 0052  
                __size_of_tolower 0060                        strcpy@dest 0001  
                __size_of_strncmp 00D6                     __size_of_main 005E  
       ??_Configuracion_Registros 0001                          efgtoa@fp 0047  
                        efgtoa@ne 0076                          efgtoa@pp 0072  
                        efgtoa@ou 0060                          _vfprintf 30DA  
                     ??_lcd_print 0005                    _vfpfcnvrt$1003 0098  
                       sprintf@ap 00B2          __end_of_lcd_time_control 354A  
                       strcpy@src 0003                          isupper@c 0001  
                       strncmp@_l 0001                         strncmp@_r 0003  
                     efgtoa@nmode 007E                       ??_vfpfcnvrt 0059  
                lcd_goto@posicion 0009                          sprintf@f 00B4  
                        tolower@c 0007                          sprintf@s 00A8  
          __size_of___fpclassifyf 00FE                          strncmp@l 0008  
                        strncmp@n 0005                          strncmp@r 000A  
                   ___fladd@signs 000D                  ?_lcd_cursor_home 0001  
                    ___fladd@aexp 000E                      ___fladd@bexp 000F  
                    ?_lcd_control 0001  
